(lp0
(lp1
S'1/1/2014'
p2
a(lp3
VBUROAK
p4
aVHAPPY2014
p5
aVPAULINA
p6
aVSHARPE
p7
aVTAKEANIP
p8
aVTONOEND
p9
aVWATUTSI
p10
aaa(lp11
S'1/2/2014'
p12
a(lp13
VFENDINGFORONESELF
p14
aVGROFE
p15
aVPENDINGLITIGATION
p16
aVVENDINGMACHINES
p17
aaa(lp18
S'1/3/2014'
p19
a(lp20
VDONNAREED
p21
aVEXPEDIA
p22
aVFOREVERSTAMP
p23
aVGOGETTERS
p24
aVLIBRARIAN
p25
aVMAINROAD
p26
aVMIXTURE
p27
aVNICOLAI
p28
aVPAINFREE
p29
aVTWITTERVERSE
p30
aVWIPEOUTS
p31
aVWYCHELM
p32
aaa(lp33
S'1/4/2014'
p34
a(lp35
VADORKABLE
p36
aVCRABBIER
p37
aVDJPAULYD
p38
aVINTERVALS
p39
aVLATCHONTO
p40
aVPARTTIMER
p41
aVPREFIGURE
p42
aVTHECAPITOL
p43
aaa(lp44
S'1/5/2014'
p45
a(lp46
VALIENATTACK
p47
aVAUTOBUS
p48
aVDEFENSIVE
p49
aVDENTIN
p50
aVINTHELOUNGE
p51
aVMISSSCARLET
p52
aVNOMINE
p53
aVNOTVERYMUCH
p54
aVPTERODACTYL
p55
aVTHEREAR
p56
aVTIMEDOUT
p57
aVWITHTHEROPE
p58
aaa(lp59
S'1/6/2014'
p60
a(lp61
VKELLYGREEN
p62
aVKIRKGIBSON
p63
aVMBUTTERFLY
p64
aVMILEY
p65
aVVISFORVENGEANCE
p66
aVYOGAMATS
p67
aaa(lp68
S'1/7/2014'
p69
a(lp70
VBADMOONRISING
p71
aVINCUBATES
p72
aVINSANEASYLUMS
p73
aVISTHISGOOD
p74
aVKILLERBEES
p75
aaa(lp76
S'1/8/2014'
p77
a(lp78
VBOSSYPANTS
p79
aVNUTJOB
p80
aaa(lp81
S'1/9/2014'
p82
a(lp83
VMACHONE
p84
aVPATCHOFICE
p85
aVSUBDIVIDE
p86
aVT
p87
aaa(lp88
S'1/10/2014'
p89
a(lp90
VBATHPILLOW
p91
aVCARDPLAYER
p92
aVCENSUS
p93
aVCHEATSHEETS
p94
aVKRISSKROSS
p95
aVONEIDALAKE
p96
aVPREACHERS
p97
aVPRINTADS
p98
aVSCRATCHPADS
p99
aVTALKEDOVER
p100
aVTHENCEFORTH
p101
aaa(lp102
S'1/11/2014'
p103
a(lp104
VCANADABLUEGRASS
p105
aVDENTALASSISTANT
p106
aVGLEASONS
p107
aVINNOWAY
p108
aVLOGSHIP
p109
aVNAVALENGAGEMENT
p110
aVNAVELRINGS
p111
aVOBSCENEGESTURES
p112
aVPOTASSIUMIODIDE
p113
aVROTGUTS
p114
aVSOSPAD
p115
aVUNAGI
p116
aaa(lp117
S'1/12/2014'
p118
a(lp119
VAMANAPLANACANALPANAMA
p120
aVBAFTAAWARDS
p121
aVBALACLAVAS
p122
aVBLACKANDTAN
p123
aVFALALALALA
p124
aVKAMEN
p125
aVKROSS
p126
aVLABANIMAL
p127
aVMETRICAL
p128
aVRASTAMAN
p129
aVSANDMANDALA
p130
aaa(lp131
S'1/13/2014'
p132
a(lp133
VGONEBALLISTIC
p134
aVPHONECALL
p135
aVRHONEVALLEY
p136
aVSTONEWALLED
p137
aaa(lp138
S'1/14/2014'
p139
a(lp140
VJAILOR
p141
aVROWB
p142
aaa(lp143
S'1/15/2014'
p144
a(lp145
VAFTERNOONT
p146
aVBLACKEYEDP
p147
aVCAPEHORN
p148
aVCARIBBEANC
p149
aVGEOGRAPHYB
p150
aVLIPSYNCS
p151
aVONLYU
p152
aVWELLG
p153
aVYIELDING
p154
aV3DECANT
p155
aVSHOEBOX
p156
aVSUMUP
p157
aVVOLTAIRE
p158
aV5DAYTON
p159
aV6BARBARA
p160
aVMEMOIR
p161
aV7DECEIT
p162
aVOWETO
p163
aV8JACOB
p164
aVOWNUP
p165
aV9FOYER
p166
aaa(lp167
S'1/16/2014'
p168
a(lp169
VAIMLOW
p170
aVYOUDOTOO
p171
aaa(lp172
S'1/17/2014'
p173
a(lp174
VANIMALFAT
p175
aVDIMESTORES
p176
aVGYMCLASSES
p177
aVHASASEAT
p178
aVHOTELBARS
p179
aVLAVENDER
p180
aVLIVETO
p181
aVMAKESOUT
p182
aVNOBOTHER
p183
aVOPENMIKE
p184
aVSMOGGIER
p185
aVSTORMDOOR
p186
aVTOWELETTE
p187
aaa(lp188
S'1/18/2014'
p189
a(lp190
VBANANAGRAMS
p191
aVEJECTORSEAT
p192
aVMEGANFOX
p193
aVMURDOCH
p194
aVSASHAFIERCE
p195
aVSEAROUTE
p196
aVTAXONOMISTS
p197
aVTIJUANATAXI
p198
aaa(lp199
S'1/19/2014'
p200
a(lp201
VDOWNEDHOG
p202
aVDRYSALT
p203
aVFUNWINEDAY
p204
aVHARPOON
p205
aVHIATT
p206
aVICITETHEWRONGS
p207
aVMADBOONERISING
p208
aVNONWORD
p209
aVRAFTERINTHELANE
p210
aVSHESSOHIGH
p211
aVSWATAT
p212
aVTANNINS
p213
aVYOURHEATINCHART
p214
aaa(lp215
S'1/20/2014'
p216
a(lp217
VATTACKAD
p218
aVCIVILRIGHTS
p219
aVPAIRINGS
p220
aVWEAREFREEATLAST
p221
aaa(lp222
S'1/21/2014'
p223
a(lp224
VWOOT
p225
aaa(lp226
S'1/22/2014'
p227
a(lp228
VBROTHERSGRIMM
p229
aVCESARRITZ
p230
aVHANSCHRISTIAN
p231
aVHANSELANDGRETEL
p232
aVTHESWITCH
p233
aVTNS
p234
aaa(lp235
S'1/23/2014'
p236
a(lp237
VBLOCKBUSTERMOVIE
p238
aVBLOCKQUOTES
p239
aVBLOCKSOUT
p240
aVBUTCHERBLOCK
p241
aVICEBLOCK
p242
aVNEWKIDONTHEBLOCK
p243
aVTUBEPAN
p244
aaa(lp245
S'1/24/2014'
p246
a(lp247
VCHALKLINE
p248
aVHOWAREYA
p249
aVMILEHIGHCLUB
p250
aVPLEASEGO
p251
aVSANDBAGS
p252
aVTRADEBOOKS
p253
aVWHOSTHAT
p254
aaa(lp255
S'1/25/2014'
p256
a(lp257
VGLUTENFREE
p258
aVMOTORCYCLE
p259
aVSUPERSTARS
p260
aVSWAMPED
p261
aVTACITUS
p262
aVWORDOFGOD
p263
aVZAGATRATED
p264
aVZOMBIE
p265
aaa(lp266
S'1/26/2014'
p267
a(lp268
VALEGUP
p269
aVANDOUT
p270
aVASPELL
p271
aVBEWITCHED
p272
aVEXCESSIVE
p273
aVFEELINGTHEHEAT
p274
aVLIBYANS
p275
aVLOCKANDKEY
p276
aVLOUSIER
p277
aVMYDEADBODY
p278
aVSHELTERED
p279
aVTALKTOYOULATER
p280
aVWARTHOG
p281
aaa(lp282
S'1/27/2014'
p283
a(lp284
VAIRTRAVEL
p285
aVFIBONACCI
p286
aVMAGNETO
p287
aVPEACEKEEPER
p288
aaa(lp289
S'1/28/2014'
p290
a(lp291
VPHONEBILBO
p292
aVSOCCERMAMBO
p293
aVSTRUCKDUMBO
p294
aVTWISTTAEBO
p295
aaa(lp296
S'1/29/2014'
p297
a(lp298
VELGINBAYLOR
p299
aVPAYTOPLAY
p300
aVULYSSESSGRANT
p301
aVWOODROWWILSON
p302
aaa(lp303
S'1/30/2014'
p304
a(lp305
VANDREADALLOVER
p306
aVASUNBURNEDPANDA
p307
aVBALLYARD
p308
aVTHISNEWSPAPER
p309
aVWHATSBLACKWHITE
p310
aaa(lp311
S'1/31/2014'
p312
a(lp313
VANANAS
p314
aVBANDEDANTEATERS
p315
aVBEEK
p316
aVCASTONESSPELLON
p317
aVHADALONGWAYTOGO
p318
aVHUTUS
p319
aVINWANTOF
p320
aVLAHABANA
p321
aVLETSDOTHISTHING
p322
aVPETERSEN
p323
aVTIDIESUP
p324
aaa(lp325
S'2/1/2014'
p326
a(lp327
VALARMBELL
p328
aVBROADCAST
p329
aVCARROLL
p330
aVEMILNOLDE
p331
aVEQUIVALENCE
p332
aVERICAKANE
p333
aVEXFOLIATE
p334
aVFASCINATION
p335
aVFLEXTIMER
p336
aVOLIVEGARDEN
p337
aVUNDEREXPOSE
p338
aaa(lp339
S'2/2/2014'
p340
a(lp341
VACHARMEDLIFE
p342
aVEXERCISERS
p343
aVICEHOLES
p344
aVIONESKYE
p345
aVKNOCKKNOCKWHOSTHERE
p346
aVMILKOFHUMANKINDNESS
p347
aVONEFELLSWOOP
p348
aVTHESCOTTISHPLAY
p349
aVWILLFUL
p350
aaa(lp351
S'2/3/2014'
p352
a(lp353
VCALENDARYEAR
p354
aVCANARYYELLOW
p355
aVCHUCKYEAGER
p356
aVLEADSHOT
p357
aVNLCS
p358
aVYAKYAK
p359
aaa(lp360
S'2/4/2014'
p361
a(lp362
VJBFLETCHER
p363
aVJCDITHERS
p364
aVJCTS
p365
aVMMDII
p366
aaa(lp367
S'2/5/2014'
p368
a(lp369
VHELLORHIGHWATER
p370
aVSHREDDEDWHEAT
p371
aVTHEWALTONS
p372
aaa(lp373
S'2/6/2014'
p374
a(lp375
VADHD
p376
aVARCHERS
p377
aVARIGOTTOW
p378
aVBLANCH
p379
aVCARRYOKIE
p380
aVCHRISTA
p381
aVNOLANS
p382
aVPSEUDOCOUP
p383
aVRANHOME
p384
aVTUNESIN
p385
aVWASSOBBY
p386
aaa(lp387
S'2/7/2014'
p388
a(lp389
VARCTURUS
p390
aVDOOBEDOOBEDOO
p391
aVDOUBLEBOGEYED
p392
aVGIMMEGIMMEGIMME
p393
aVHOGAUGE
p394
aVSLOPPING
p395
aVSPEEDSKATER
p396
aaa(lp397
S'2/8/2014'
p398
a(lp399
VGOKAPUT
p400
aVHAIRMETAL
p401
aVJUKEBOXHERO
p402
aVOREGONTRAIL
p403
aVPEGWOOD
p404
aVPOPOV
p405
aVSHAMELESS
p406
aVSOVIETUNION
p407
aaa(lp408
S'2/9/2014'
p409
a(lp410
VBLEH
p411
aVEARPHONE
p412
aVLIVERPOOL
p413
aVMANYS
p414
aVNEUER
p415
aVONESIDE
p416
aVPAULMCCARTNEYJOHNLENNON
p417
aVREALTV
p418
aVRINGOSTARRGEORGEHARRISON
p419
aVSHELOVESYOU
p420
aVTHEFABFOUR
p421
aVTHITHER
p422
aVYESTERDAY
p423
aaa(lp424
S'2/10/2014'
p425
a(lp426
VRECCENTER
p427
aVSOUSCHEF
p428
aVSPARECASH
p429
aaa(lp430
S'2/11/2014'
p431
a(lp432
VCALLITAWASH
p433
aVDATEABLE
p434
aVGOTOPRESS
p435
aVLEAVEHIGHANDDRY
p436
aVRETURNTOTHEFOLD
p437
aVUSAFB
p438
aaa(lp439
S'2/12/2014'
p440
a(lp441
VAGEDOUT
p442
aVLAIDOVER
p443
aVLETHALAGENT
p444
aVNIHILIST
p445
aVSHUTTLER
p446
aVSTRIKEZONES
p447
aVTELLINGTHETRUTH
p448
aVTRIMMINGTHETREE
p449
aVTURNINGTHETRICK
p450
aaa(lp451
S'2/13/2014'
p452
a(lp453
VKEENEAR
p454
aVLADYMADONNA
p455
aVMADELINE
p456
aVSOREARM
p457
aVTAXIFARE
p458
aaa(lp459
S'2/14/2014'
p460
a(lp461
VARMYCAMP
p462
aVAVOIDANCE
p463
aVENDLESSLY
p464
aVLAKEPOET
p465
aVLOITERING
p466
aVREADABOOK
p467
aVSTAYCOOL
p468
aaa(lp469
S'2/15/2014'
p470
a(lp471
VFORELIMBS
p472
aVGRAVESTONE
p473
aVHOUSEMD
p474
aVKAMASUTRA
p475
aVMELLON
p476
aVMILITARIES
p477
aVNEGOTIATED
p478
aVPAXIL
p479
aVRATIONOUT
p480
aVSOUPNAZI
p481
aVSTBONIFACE
p482
aVWHALEBONES
p483
aaa(lp484
S'2/16/2014'
p485
a(lp486
VBLONDEALE
p487
aVCOMOESTA
p488
aVDAIRYGODMOTHER
p489
aVDAREINCREASE
p490
aVDISHANDCHIPS
p491
aVJILTERS
p492
aVJOBSEARCH
p493
aVMAILLIST
p494
aVMUSCLECELL
p495
aVNODRILLSAIRLINE
p496
aVORANGEOIL
p497
aVOXIDANTS
p498
aVSCIENCEDICTION
p499
aVSTRUMMED
p500
aVTWODIVESFORATEN
p501
aVVARIANTS
p502
aaa(lp503
S'2/17/2014'
p504
a(lp505
VATATROT
p506
aVNOMORETEARS
p507
aVSLUSHES
p508
aVWHATAJOKE
p509
aaa(lp510
S'2/18/2014'
p511
a(lp512
VXWord
p513
aVInfo
p514
aV--
p515
aVFreshness
p516
aVFactor
p517
aVp
p518
aV{
p519
aVfont-size:
p520
aV10pt;
p521
aVmargin-right:
p522
aV150px;
p523
aV}
p524
aVtable.FreshTable
p525
ag519
aVmargin-top:30px;
p526
aVwidth:728px;
p527
ag524
aVtable.FreshTable
p528
aVtd
p529
ag519
aVword-spacing:12px;
p530
aVpadding:
p531
aV2px
p532
aV6px;
p533
ag524
aVtable.FreshTable
p534
aVtd.cen
p535
ag519
aVborder-right:
p536
aV1px
p537
aVsolid
p538
aV#a0a0a0;
p539
ag524
aV.wow
p540
ag519
aVmargin-left:10px;
p541
aVfont-size:18px;
p542
aVpadding:
p543
aV4px
p544
aV12px;
p545
aVbackground-color:#ffff99;
p546
aVborder:
p547
aV1px
p548
aVsolid
p549
aVgray;
p550
aVfloat:right;
p551
aVmargin-right:50px;
p552
ag524
aV.unavailable
p553
ag519
aVcolor:
p554
aV#990000;
p555
aVfont-weight:
p556
aVbold;
p557
ag524
aV$(function
p558
aV()
p559
ag519
aVTTBind('.dtlink');
p560
aV});
p561
aVgoogle_ad_client
p562
aV=
p563
aV"pub-8008056854399993";
p564
aVgoogle_ad_slot
p565
ag563
aV"5766494846";
p566
aVgoogle_ad_width
p567
ag563
aV728;
p568
aVgoogle_ad_height
p569
ag563
aV90;
p570
aVXWord
p571
aVInfo
p572
aVHome
p573
aVPrevious
p574
aV|
p575
aVNext
p576
ag575
aVFull
p577
aVpuzzle
p578
aVview
p579
ag575
aVAnalyze
p580
aVXWord
p581
aVInfo
p582
aVFreshness
p583
aVFactor\u2122
p584
aVFF:
p585
aV54.666.5
p586
aVpercentile,
p587
aV93.5
p588
aVTuesday
p589
aVpercentile
p590
aVTuesday,
p591
aVFebruary
p592
aV18,
p593
aV2014
p594
aVby
p595
aVDavid
p596
aVSteinberg
p597
aV\u2014
p598
aV0
p599
aVUnique
p600
aVwords
p601
aVTue
p602
aV2/18/2014
p603
aVATOZBARBGONER
p604
aVCODYBBOYORONO
p605
aVIDIGCHATTERBOX
p606
aVDONOWONERSERI
p607
aVTEARISITME
p608
aVHAKEEMEXGOV
p609
aVICIAMIDFONDU
p610
aVGARMENTDISTRICT
p611
aVHIKESGENLSON
p612
aVICIERURSINE
p613
aVPIANOSLEAH
p614
aVORKREUSEJOHNQ
p615
aVKARATECHOPLUAU
p616
aVENOTELENOOMNI
p617
aVDINEDALEXMEAN
p618
aVThe
p619
aVchart
p620
aVbelow
p621
aVshows
p622
aVthe
p623
aVnumber
p624
aVof
p625
aVother
p626
aVtimes
p627
aVeach
p628
aVword
p629
aVin
p630
aVthis
p631
aVpuzzle
p632
aVhas
p633
aVbeen
p634
aVused
p635
aVin
p636
aVthe
p637
aVModern
p638
aVEra
p639
aVso
p640
aVwords
p641
aVat
p642
aVthe
p643
aVtop
p644
aVof
p645
aVthe
p646
aVlist
p647
aVare
p648
aVthe
p649
aVrarest.
p650
aVThe
p651
aVFreshness
p652
aVFactor
p653
aVis
p654
aVdetermined
p655
aVby
p656
aVsubtracting
p657
aVthe
p658
aVaverage
p659
aVcount
p660
aVfrom
p661
aV100.
p662
aVSince
p663
aVFreshness
p664
aVFactor
p665
aVerodes
p666
aVover
p667
aVtime
p668
aVas
p669
aVmore
p670
aVpuzzles
p671
aVget
p672
aVadded
p673
aVto
p674
aVthe
p675
aVdatabase,
p676
aVpercentiles
p677
aVare
p678
aVa
p679
aVmuch
p680
aVmore
p681
aVmeaningful
p682
aVmeasurement.
p683
aVThe
p684
aVoverall
p685
aVpercentile
p686
aVcompares
p687
aVthis
p688
aVpuzzle
p689
aVto
p690
aVall
p691
aVpuzzles
p692
aVin
p693
aVthe
p694
aVdatabase.
p695
aVThe
p696
aVday-of-week
p697
aVpercentile
p698
aVonly
p699
aVcompares
p700
aVagainst
p701
aVother
p702
aVpuzzles
p703
aVpublished
p704
aVon
p705
aVthe
p706
aVsame
p707
aVweekday.
p708
aVThis
p709
aVallows
p710
aVpuzzles
p711
aVthat
p712
aVare,
p713
aVfor
p714
aVexample,
p715
aV"fresh
p716
aVfor
p717
ag679
aVMonday"
p718
aVto
p719
aVget
p720
aVproper
p721
aVcredit.
p722
aVFor
p723
aVexample,
p724
ag679
aVpercentile
p725
aVof
p726
aV75
p727
aVwould
p728
aVmean
p729
aVthat
p730
aVfor
p731
aVthis
p732
aVpuzzle,
p733
aVonly
p734
aV25%
p735
aVof
p736
aVall
p737
aVpuzzles
p738
aV(or
p739
aVpuzzles
p740
aVfor
p741
aVthis
p742
aVday
p743
aVof
p744
aVweek)
p745
aVhave
p746
ag679
aVhigher
p747
aVFreshness
p748
aVFactor.
p749
aVNote
p750
aVthat
p751
aVthis
p752
aVcompletely
p753
aVmathematical
p754
aVcalculation
p755
aVdoes
p756
aVnot
p757
aVand
p758
aVcannot
p759
aVinclude
p760
aVsuch
p761
aVsubjective
p762
aVfactors
p763
aVas
p764
aVthe
p765
aVcleverness
p766
aVof
p767
aVthe
p768
aVclues.
p769
aVObscure
p770
aVwords
p771
aVare
p772
aV"fresh"
p773
aVbut
p774
aVmay
p775
aVnot
p776
aVbe
p777
aVany
p778
aVgood.
p779
aVClick
p780
aVon
p781
aVany
p782
aVanswer
p783
aVword
p784
aVbelow
p785
aVto
p786
aVsee
p787
aVall
p788
aVthe
p789
aVdefinitions
p790
aVfor
p791
aVthat
p792
aVword.
p793
aVCountWord
p794
aaa(lp795
S'2/19/2014'
p796
a(lp797
VCOMPANYHALT
p798
aVDIPHTHONG
p799
aVFORWARDMARCH
p800
aVIMPIETY
p801
aVPRESORTED
p802
aVREADYAIMFIRE
p803
aV2HOLDEM
p804
aVPRESENTARMS
p805
aV3THERMOS
p806
aV4HIPPOS
p807
aV7DIAG
p808
aVNONA
p809
aV9SAGET
p810
aaa(lp811
S'2/20/2014'
p812
a(lp813
VGOINGOVER
p814
aVIDONTBUYIT
p815
aVPREDATORY
p816
aVRUBINSTEIN
p817
aVWAWAS
p818
aVWOODROW
p819
aaa(lp820
S'2/21/2014'
p821
a(lp822
VBOOKED
p823
aVCAMERAOBSCURA
p824
aVCLOGDANCE
p825
aVCOEDDORMS
p826
aVCRESCENTMOONS
p827
aVCYCLOTRONS
p828
aVDOGMATISTS
p829
aVGOBIGORGOHOME
p830
aVJOLTED
p831
aVPENDULUMS
p832
aVPROPCOMIC
p833
aaa(lp834
S'2/22/2014'
p835
a(lp836
VALCHEMISTS
p837
aVARCHANGELS
p838
aVBROADBAND
p839
aVDOMINATRIX
p840
aVGAWD
p841
aVHAYSTACKS
p842
aVRISKSIT
p843
aVSHOWDOG
p844
aVWIDERIGHT
p845
aaa(lp846
S'2/23/2014'
p847
a(lp848
VAGUYNAMEDJOE
p849
aVCARSTEREO
p850
aVDEEPINTO
p851
aVLASTDAY
p852
aVPOPOUT
p853
aVSCOTTIES
p854
aVSTUDENTID
p855
aVTORTILLAFLAT
p856
aVVICTORFLEMING
p857
aVWREAKED
p858
aaa(lp859
S'2/24/2014'
p860
a(lp861
VAMALGAMATED
p862
aVAMYLNITRITE
p863
aVJOKESAROUND
p864
aVMEGABYTE
p865
aVSOUNDTRACK
p866
aaa(lp867
S'2/25/2014'
p868
a(lp869
VARABLEADER
p870
aVCLOWNAROUND
p871
aVCROSSWORDESE
p872
aVFENCINGBLADE
p873
aaa(lp874
S'2/26/2014'
p875
a(lp876
VCARBONS
p877
aVCREDITRISK
p878
aVCUBISTREPORTERS
p879
aVMAINSTREET
p880
aVPOMPOUSASSIST
p881
aVSLEEPERCELLISTS
p882
aVSTARKISTNAKED
p883
aV3CALYPSO
p884
aVGUEVARA
p885
aV4ASCENTS
p886
aVIMUP
p887
aVSURLY
p888
aV5ADDICT
p889
aVREPLICA
p890
aV6SPORK
p891
aV8SKICAP
p892
aVVOILE
p893
aV9CAF
p894
aaa(lp895
S'2/27/2014'
p896
a(lp897
VAFTERYOULEAVE
p898
aVCHOSEUP
p899
aVDONTTALKABOUT
p900
aVPEAPODS
p901
aVWILLDOTHAT
p902
aVYELLOWY
p903
aVYOURSELFWE
p904
aaa(lp905
S'2/28/2014'
p906
a(lp907
VAARONCARTER
p908
aVANTIRIOT
p909
aVCALLOPTIONS
p910
aVFLAUTIST
p911
aVHADATINEAR
p912
aVHIGHNOTES
p913
aVMALARIAPARASITE
p914
aVWHATISTHIS
p915
aaa(lp916
S'3/1/2014'
p917
a(lp918
VBESTDRAMA
p919
aVDVDCASE
p920
aVGOOGLEGLASS
p921
aVIPADAIR
p922
aVKTHXBYE
p923
aVLENSMAN
p924
aVPERONI
p925
aVRETWEET
p926
aVSNAKEBITTEN
p927
aVUNTILNOW
p928
aaa(lp929
S'3/2/2014'
p930
a(lp931
VAIRPORTTRAFFIC
p932
aVBRAVEHEARTOUTOFAFRICA
p933
aVCHICAGOTAXIDRIVER
p934
aVDEPALMA
p935
aVFEH
p936
aVFORCEFUL
p937
aVGOINGMYWAYBABE
p938
aVNETWORKCRASH
p939
aVPICNICONTHEWATERFRONT
p940
aVROCKYWITNESS
p941
aaa(lp942
S'3/3/2014'
p943
a(lp944
VDIVANDIVA
p945
aVEASTERNEASTER
p946
aVFREETOWNFREETOW
p947
aVLEARNLEAR
p948
aVPATTERNPATTER
p949
aaa(lp950
S'3/4/2014'
p951
a(lp952
VDISCOVERING
p953
aVELECTRICITY
p954
aVGOFLY
p955
aVMISSTATE
p956
aVQUELLS
p957
aVRAVISHED
p958
aaa(lp959
S'3/5/2014'
p960
a(lp961
VDONTASKME
p962
aVGCHAT
p963
aVHELLIFIKNOW
p964
aVIHAVENOCLUE
p965
aVIMSTUMPED
p966
aVSUNSPOTS
p967
aaa(lp968
S'3/6/2014'
p969
a(lp970
VMOONSTONES
p971
aVSEIZESTHEDAY
p972
aaa(lp973
S'3/7/2014'
p974
a(lp975
VGARAGEDOOR
p976
aVHAZMATSUIT
p977
aVICKINESS
p978
aVNOTGREAT
p979
aVREBOTTLE
p980
aVSCHADENFREUDE
p981
aVTHENANNY
p982
aaa(lp983
S'3/8/2014'
p984
a(lp985
VAIOLIS
p986
aVARAGONESE
p987
aVCANDYSHOP
p988
aVCLARITIN
p989
aVCOKEZERO
p990
aVGOOGLEBOT
p991
aVJAILBREAK
p992
aVJUSTDOIT
p993
aaa(lp994
S'3/9/2014'
p995
a(lp996
VBOISEWONDER
p997
aVBREEZYCHEESE
p998
aVDAISYTRADER
p999
aVDOOZYPOINT
p1000
aVEASYCOMMERCE
p1001
aVHAZYSAILOR
p1002
aVHOLYWRIT
p1003
aVISOTONER
p1004
aVLARYNXES
p1005
aVMOSHERS
p1006
aVPLAYIT
p1007
aVROSYHOUSE
p1008
aVSTEPTOE
p1009
aaa(lp1010
S'3/10/2014'
p1011
a(lp1012
VFINGERNAIL
p1013
aaa(lp1014
S'3/11/2014'
p1015
a(lp1016
VBULLNOSED
p1017
aVBUMSAROUND
p1018
aVBURMAROAD
p1019
aVBUTTONWOOD
p1020
aVCOOKBOOK
p1021
aaa(lp1022
S'3/12/2014'
p1023
a(lp1024
VDRINKSALLAROUND
p1025
aVFAV
p1026
aVSNOOKERED
p1027
aaa(lp1028
S'3/13/2014'
p1029
a(lp1030
VBRAVER
p1031
aVCOLORBYNUMBER
p1032
aVOUTACT
p1033
aaa(lp1034
S'3/14/2014'
p1035
a(lp1036
VBBCRADIO
p1037
aVCOMPLEXANALYSIS
p1038
aVINTHEWILD
p1039
aVLIVEDANGEROUSLY
p1040
aVPHASINGIN
p1041
aVSERVICEENTRANCE
p1042
aVTHESLOTS
p1043
aaa(lp1044
S'3/15/2014'
p1045
a(lp1046
VBODACIOUS
p1047
aVHOLMESIAN
p1048
aVHUMANRACE
p1049
aVIRISHMOSS
p1050
aVKISSYFACE
p1051
aVTWITTERJAIL
p1052
aaa(lp1053
S'3/16/2014'
p1054
a(lp1055
VAEGISES
p1056
aVEXFED
p1057
aVFOLLOWINGTHE
p1058
aVFOURXFOUR
p1059
aVFULLON
p1060
aVGROUCHOMARXMUSTACHE
p1061
aVHOTWAX
p1062
aVLOONIE
p1063
aVPOORME
p1064
aVPRESCRIPTION
p1065
aVPROFESSORXAVIER
p1066
aVRETURNOFDOCTORX
p1067
aVROMCOMS
p1068
aVSOLVEFORX
p1069
aVTHEWINTERXGAMES
p1070
aVXERXESIOFPERSIA
p1071
aaa(lp1072
S'3/17/2014'
p1073
a(lp1074
VGEMSTATE
p1075
aVGOMERPYLE
p1076
aVGUMBALLS
p1077
aVGYMNASTICS
p1078
aVJIMPALMER
p1079
aaa(lp1080
S'3/18/2014'
p1081
a(lp1082
VBURGLARAL
p1083
aVDEATHWEDOVER
p1084
aVGENTDISTRICT
p1085
aVSNAKECHER
p1086
aVTORV
p1087
aaa(lp1088
S'3/19/2014'
p1089
a(lp1090
VANDSPLIT
p1091
aVMAKELIKEA
p1092
aVMYGOSH
p1093
aVTENDAY
p1094
aaa(lp1095
S'3/20/2014'
p1096
a(lp1097
VABRIDGETOOFAR
p1098
aVCOLLEGETOWNS
p1099
aVSTORAGETANKS
p1100
aaa(lp1101
S'3/21/2014'
p1102
a(lp1103
VARTMAJOR
p1104
aVBETWEENTWOFERNS
p1105
aVCARYN
p1106
aVCRUMHORN
p1107
aVDOITBYTHEBOOK
p1108
aVGETSOPEN
p1109
aVKINDLIER
p1110
aVMATHER
p1111
aVWANTEDTO
p1112
aaa(lp1113
S'3/22/2014'
p1114
a(lp1115
VENVISION
p1116
aVTIGHTEST
p1117
aVZIPDRIVE
p1118
aVZOOEXHIBIT
p1119
aaa(lp1120
S'3/23/2014'
p1121
a(lp1122
VCHICAGOBULLS
p1123
aVFOUNDTENTHOUSANDWAYS
p1124
aVIHAVENOTFAILEDIVEJUST
p1125
aVINCANDESCENTLIGHTBULB
p1126
aVLEDES
p1127
aVLUNDGREN
p1128
aVNFCSOUTH
p1129
aVOPENCIRCUIT
p1130
aVPATEL
p1131
aVSATBACK
p1132
aVSESAMEBAGELS
p1133
aVTHATWONTWORK
p1134
aVTHENINERS
p1135
aVTHEWIZARDOFMENLOPARK
p1136
aVTHOMASEDISON
p1137
aaa(lp1138
S'3/24/2014'
p1139
a(lp1140
VDIRTYWORDS
p1141
aVFILTHYRICH
p1142
aVGREASYSPOONS
p1143
aVSTAINEDGLASS
p1144
aaa(lp1145
S'3/25/2014'
p1146
a(lp1147
VFLOOZY
p1148
aVITAINTOVERUNTIL
p1149
aVMANOLO
p1150
aVWALKOFFHOMER
p1151
aaa(lp1152
S'3/26/2014'
p1153
a(lp1154
VIMSAD
p1155
aVNIBLETS
p1156
aVREQUEST
p1157
aVROLLSIN
p1158
aVSCALLOP
p1159
aVSQUIRES
p1160
aaa(lp1161
S'3/27/2014'
p1162
a(lp1163
V2PIR
p1164
aVRMOVIES
p1165
aVSEWEDUP
p1166
aVSIDE2
p1167
aVSQUAREDAWAY
p1168
aaa(lp1169
S'3/28/2014'
p1170
a(lp1171
VALEXANDERCALDER
p1172
aVBLUECHIPS
p1173
aVCABBIES
p1174
aVCAPTAINPHILLIPS
p1175
aVKLEBAN
p1176
aVLOSEONESMARBLES
p1177
aVMISHANDLE
p1178
aVORLANDOSENTINEL
p1179
aVSOMALIPIRATES
p1180
aVSOURCESOFINCOME
p1181
aVTRILBY
p1182
aaa(lp1183
S'3/29/2014'
p1184
a(lp1185
VDANUBERIVER
p1186
aVDRONEBEES
p1187
aVHUDSONBAY
p1188
aVONACAROUSEL
p1189
aVRANANERRAND
p1190
aVSTATESECRET
p1191
aaa(lp1192
S'3/30/2014'
p1193
a(lp1194
VADDIT
p1195
aVBEDSTRAW
p1196
aVDRIVENMAD
p1197
aVEMPIRICIST
p1198
aVINBADSHAPE
p1199
aVINREVIEW
p1200
aVISSUEDATE
p1201
aVLAUDATORY
p1202
aVLOATEENAGERVE
p1203
aVLOOFAS
p1204
aVMRPIBB
p1205
aVNOOMDAB
p1206
aVSACRAL
p1207
aVSUBSISTENCE
p1208
aVTHECLOCK
p1209
aVTHEWATER
p1210
aVTOOCAREFUL
p1211
aVTWERK
p1212
aVYOURMAN
p1213
aaa(lp1214
S'3/31/2014'
p1215
a(lp1216
VBARBARELLA
p1217
aVEXHUSBAND
p1218
aVINQUEST
p1219
aVMACARTHURPARK
p1220
aVMARDIGRASPARADE
p1221
aVMASSAGEPARLOR
p1222
aVSTORMSURGE
p1223
aV2MASQUERADEPARTY
p1224
aVURSAMAJOR
p1225
aV3DECANT
p1226
aV4DORITO
p1227
aV6OPTIN
p1228
aV7KINK
p1229
aV8APPAREL
p1230
aVJASPER
p1231
aVMAANDPA
p1232
aV9MODELT
p1233
aaa(lp1234
S'4/1/2014'
p1235
a(lp1236
VBESTTHREE
p1237
aVCODONS
p1238
aVMOUSEPADS
p1239
aVNITTANY
p1240
aVOUTOFFIVE
p1241
aaa(lp1242
S'4/2/2014'
p1243
a(lp1244
VARMYWASH
p1245
aVCOBAIN
p1246
aVIGOTNEXT
p1247
aVIRANHIT
p1248
aVJOHNMUIR
p1249
aVRARECATCH
p1250
aVSWORDHILT
p1251
aVWETHOODS
p1252
aaa(lp1253
S'4/3/2014'
p1254
a(lp1255
VCHAINSMOKED
p1256
aVCHANUKAHMENORAH
p1257
aVCHAOSTHEORY
p1258
aVCHCHCHCHCHANGES
p1259
aVCOPCAR
p1260
aVFANBOY
p1261
aVUNSORTED
p1262
aaa(lp1263
S'4/4/2014'
p1264
a(lp1265
VEXORCIST
p1266
aVMAPA
p1267
aVMARINEINSURANCE
p1268
aVSAMMYFAIN
p1269
aVSCARLETA
p1270
aVSINGINGTOGETHER
p1271
aVSLUGITOUT
p1272
aVTERNES
p1273
aVVIRGOS
p1274
aaa(lp1275
S'4/5/2014'
p1276
a(lp1277
VAMBERS
p1278
aVDUCHAMP
p1279
aVFIONAAPPLE
p1280
aVIDOBELIEVE
p1281
aVIGOTYOU
p1282
aVLEGALIZEIT
p1283
aVLUCKYME
p1284
aVMAKEBANK
p1285
aVPEELINGS
p1286
aVPRIMALURGE
p1287
aVSEXSYMBOL
p1288
aVSHESAIDYES
p1289
aVSTYLISH
p1290
aVUCBERKELEY
p1291
aaa(lp1292
S'4/6/2014'
p1293
a(lp1294
VBACKBURNER
p1295
aVBATHROOMSLIPPER
p1296
aVCHICKENTENDER
p1297
aVCOCKERS
p1298
aVFOAMRUBBER
p1299
aVMEDICINEDROPPER
p1300
aVMIDSTREAM
p1301
aVOYSTERCRACKER
p1302
aVSNACKCOUNTER
p1303
aVSNEAKUPON
p1304
aVTRICKUP
p1305
aaa(lp1306
S'4/7/2014'
p1307
a(lp1308
VXWord
p1309
aVInfo
p1310
aV--
p1311
aVFreshness
p1312
aVFactor
p1313
ag518
ag519
aVfont-size:
p1314
aV10pt;
p1315
aVmargin-right:
p1316
aV150px;
p1317
ag524
aVtable.FreshTable
p1318
ag519
aVmargin-top:30px;
p1319
aVwidth:728px;
p1320
ag524
aVtable.FreshTable
p1321
aVtd
p1322
ag519
aVword-spacing:12px;
p1323
aVpadding:
p1324
aV2px
p1325
aV6px;
p1326
ag524
aVtable.FreshTable
p1327
aVtd.cen
p1328
ag519
aVborder-right:
p1329
aV1px
p1330
aVsolid
p1331
aV#a0a0a0;
p1332
ag524
aV.wow
p1333
ag519
aVmargin-left:10px;
p1334
aVfont-size:18px;
p1335
aVpadding:
p1336
aV4px
p1337
aV12px;
p1338
aVbackground-color:#ffff99;
p1339
aVborder:
p1340
aV1px
p1341
aVsolid
p1342
aVgray;
p1343
aVfloat:right;
p1344
aVmargin-right:50px;
p1345
ag524
aV.unavailable
p1346
ag519
aVcolor:
p1347
aV#990000;
p1348
aVfont-weight:
p1349
aVbold;
p1350
ag524
aV$(function
p1351
aV()
p1352
ag519
aVTTBind('.dtlink');
p1353
aV});
p1354
aVXWord
p1355
aVInfo
p1356
aVHome
p1357
aVPrevious
p1358
ag575
aVNext
p1359
ag575
aVFull
p1360
aVpuzzle
p1361
aVview
p1362
ag575
aVAnalyze
p1363
aVXWord
p1364
aVInfo
p1365
aVFreshness
p1366
aVFactor\u2122
p1367
aVFF:
p1368
aV35.215.6
p1369
aVpercentile,
p1370
aV43.2
p1371
aVMonday
p1372
aVpercentile
p1373
aVMonday,
p1374
aVApril
p1375
aV7,
p1376
aV2014
p1377
aVby
p1378
aVDouglas
p1379
aVTaillon
p1380
aV\u2014
p1381
ag599
aVUnique
p1382
aVwords
p1383
aVMon
p1384
aV4/7/2014
p1385
aVPAIRWEBDUAL
p1386
aVANNOSHRUGANTE
p1387
aVDOUBLEORNOTHING
p1388
aVRUSTICSOOTOO
p1389
aVEKEROBEDRS
p1390
aVJANUSYENTA
p1391
aVHOPEDOETROUPE
p1392
aVANARCHYSWOONED
p1393
aVTUSSLERHOZERO
p1394
aVSTEELAISLE
p1395
aVYAPHAHAARM
p1396
aVSAGVIAOPAQUE
p1397
aVTWINENGINEPLANE
p1398
aVURGEGENUSIBIS
p1399
aVDYADSATFACE
p1400
aVThe
p1401
aVchart
p1402
aVbelow
p1403
aVshows
p1404
aVthe
p1405
aVnumber
p1406
aVof
p1407
aVother
p1408
aVtimes
p1409
aVeach
p1410
aVword
p1411
aVin
p1412
aVthis
p1413
aVpuzzle
p1414
aVhas
p1415
aVbeen
p1416
aVused
p1417
aVin
p1418
aVthe
p1419
aVModern
p1420
aVEra
p1421
aVso
p1422
aVwords
p1423
aVat
p1424
aVthe
p1425
aVtop
p1426
aVof
p1427
aVthe
p1428
aVlist
p1429
aVare
p1430
aVthe
p1431
aVrarest.
p1432
aVThe
p1433
aVFreshness
p1434
aVFactor
p1435
aVis
p1436
aVdetermined
p1437
aVby
p1438
aVsubtracting
p1439
aVthe
p1440
aVaverage
p1441
aVcount
p1442
aVfrom
p1443
aV100.
p1444
aVSince
p1445
aVFreshness
p1446
aVFactor
p1447
aVerodes
p1448
aVover
p1449
aVtime
p1450
aVas
p1451
aVmore
p1452
aVpuzzles
p1453
aVget
p1454
aVadded
p1455
aVto
p1456
aVthe
p1457
aVdatabase,
p1458
aVpercentiles
p1459
aVare
p1460
ag679
aVmuch
p1461
aVmore
p1462
aVmeaningful
p1463
aVmeasurement.
p1464
aVThe
p1465
aVoverall
p1466
aVpercentile
p1467
aVcompares
p1468
aVthis
p1469
aVpuzzle
p1470
aVto
p1471
aVall
p1472
aVpuzzles
p1473
aVin
p1474
aVthe
p1475
aVdatabase.
p1476
aVThe
p1477
aVday-of-week
p1478
aVpercentile
p1479
aVonly
p1480
aVcompares
p1481
aVagainst
p1482
aVother
p1483
aVpuzzles
p1484
aVpublished
p1485
aVon
p1486
aVthe
p1487
aVsame
p1488
aVweekday.
p1489
aVThis
p1490
aVallows
p1491
aVpuzzles
p1492
aVthat
p1493
aVare,
p1494
aVfor
p1495
aVexample,
p1496
aV"fresh
p1497
aVfor
p1498
ag679
aVMonday"
p1499
aVto
p1500
aVget
p1501
aVproper
p1502
aVcredit.
p1503
aVFor
p1504
aVexample,
p1505
ag679
aVpercentile
p1506
aVof
p1507
aV75
p1508
aVwould
p1509
aVmean
p1510
aVthat
p1511
aVfor
p1512
aVthis
p1513
aVpuzzle,
p1514
aVonly
p1515
aV25%
p1516
aVof
p1517
aVall
p1518
aVpuzzles
p1519
aV(or
p1520
aVpuzzles
p1521
aVfor
p1522
aVthis
p1523
aVday
p1524
aVof
p1525
aVweek)
p1526
aVhave
p1527
ag679
aVhigher
p1528
aVFreshness
p1529
aVFactor.
p1530
aVNote
p1531
aVthat
p1532
aVthis
p1533
aVcompletely
p1534
aVmathematical
p1535
aVcalculation
p1536
aVdoes
p1537
aVnot
p1538
aVand
p1539
aVcannot
p1540
aVinclude
p1541
aVsuch
p1542
aVsubjective
p1543
aVfactors
p1544
aVas
p1545
aVthe
p1546
aVcleverness
p1547
aVof
p1548
aVthe
p1549
aVclues.
p1550
aVObscure
p1551
aVwords
p1552
aVare
p1553
aV"fresh"
p1554
aVbut
p1555
aVmay
p1556
aVnot
p1557
aVbe
p1558
aVany
p1559
aVgood.
p1560
aVClick
p1561
aVon
p1562
aVany
p1563
aVanswer
p1564
aVword
p1565
aVbelow
p1566
aVto
p1567
aVsee
p1568
aVall
p1569
aVthe
p1570
aVdefinitions
p1571
aVfor
p1572
aVthat
p1573
aVword.
p1574
aVCountWord
p1575
aaa(lp1576
S'4/8/2014'
p1577
a(lp1578
VCREWTEAM
p1579
aVKEEPITDOWN
p1580
aVKNOCKITOFF
p1581
aVMOVEITALONG
p1582
aVWRAPITUP
p1583
aV2ECOLAW
p1584
aVGASSTOVE
p1585
aV3ADWARE
p1586
aVCUTITOUT
p1587
aVTENHUT
p1588
aV4APESUIT
p1589
aVWHATNOT
p1590
aV5SEESFIT
p1591
aV6HYPES
p1592
aV7GUINEA
p1593
aV8AUDITS
p1594
aV9GUTSY
p1595
aVSWEDES
p1596
aaa(lp1597
S'4/9/2014'
p1598
a(lp1599
VFIRSTLIGHT
p1600
aVWATERSNAKE
p1601
aVWHATSINTHEBOXES
p1602
aVWORDINESS
p1603
aaa(lp1604
S'4/10/2014'
p1605
a(lp1606
VCHECKEREDPAST
p1607
aVHUNGRIER
p1608
aVMONOGRAM
p1609
aVREDSKELTON
p1610
aVSIXFLAGS
p1611
aaa(lp1612
S'4/11/2014'
p1613
a(lp1614
VBIGGAMES
p1615
aVKATEMOSS
p1616
aVMOVEBACK
p1617
aVPOPELEOX
p1618
aVSHEDTEARS
p1619
aVVELVETROPE
p1620
aaa(lp1621
S'4/12/2014'
p1622
a(lp1623
VBACKBENCH
p1624
aVBINGHAM
p1625
aVCOLBERTBUMP
p1626
aVCONSULATES
p1627
aVDARKSTARS
p1628
aVHEATHERY
p1629
aVLEGISLATURE
p1630
aVMAOSUIT
p1631
aVMRROARKE
p1632
aVMYCOLOGISTS
p1633
aVPYEDOGS
p1634
aaa(lp1635
S'4/13/2014'
p1636
a(lp1637
VARTGLASS
p1638
aVBRILLIANTDEDUCTION
p1639
aVCROWNE
p1640
aVEBANKS
p1641
aVEMERGENCYSHELTER
p1642
aVHELLIONS
p1643
aVMANYHAPPYRETURNS
p1644
aVRIGGER
p1645
aVROLLTHECREDITS
p1646
aVSCHEDULECHANGE
p1647
aVSEGWAY
p1648
aVWITHHOLDINGCONSENT
p1649
aaa(lp1650
S'4/14/2014'
p1651
a(lp1652
VTHEIRFINESTHOUR
p1653
aVTHEYREGRRRRREAT
p1654
aVWRONGED
p1655
aaa(lp1656
S'4/15/2014'
p1657
a(lp1658
VBASEONBALLS
p1659
aVDOGGIEBAG
p1660
aVINSIDEEDITION
p1661
aaa(lp1662
S'4/16/2014'
p1663
a(lp1664
VCOLLISIONTHEORY
p1665
aVREFINERY
p1666
aaa(lp1667
S'4/17/2014'
p1668
a(lp1669
VOUTHOUSES
p1670
aVTHEHEART
p1671
aVTHENOSE
p1672
aVTHERANKS
p1673
aVTHEROOF
p1674
aVTYPECASTS
p1675
aaa(lp1676
S'4/18/2014'
p1677
a(lp1678
VATHENAEUM
p1679
aVBAMAKO
p1680
aVBUCOLIC
p1681
aVGIVEUP
p1682
aVLIKECRAZY
p1683
aVNOTMUCHTOLOOKAT
p1684
aVSHARINGISCARING
p1685
aaa(lp1686
S'4/19/2014'
p1687
a(lp1688
VBEJEWEL
p1689
aVEGGPAN
p1690
aVHOSTILEREACTION
p1691
aVITTAKESALLSORTS
p1692
aVLATAKIA
p1693
aVLESSCOMPLICATED
p1694
aVMELDING
p1695
aVPREWRAP
p1696
aVTHEGOBLETOFFIRE
p1697
aaa(lp1698
S'4/20/2014'
p1699
a(lp1700
VBEETLEBAILEY
p1701
aVCAVUTO
p1702
aVCOTTONBALL
p1703
aVEARTAGS
p1704
aVHORNSONATA
p1705
aVITOF
p1706
aVKHLOE
p1707
aVLOOSETEAS
p1708
aVOPTIMACARD
p1709
aVPOUNDON
p1710
aVSANDIEGOCHARGER
p1711
aVSNOWYEGRET
p1712
aVSTOPCOCKS
p1713
aVTEALBLUE
p1714
aVWETLOOK
p1715
aVWORDAGE
p1716
aaa(lp1717
S'4/21/2014'
p1718
a(lp1719
VBANKMANAGER
p1720
aVBLACKJACKPLAYER
p1721
aVCENSUSTAKER
p1722
aVCOUNTEREXAMPLES
p1723
aVHOMEPLATEUMPIRE
p1724
aVPRATFALL
p1725
aaa(lp1726
S'4/22/2014'
p1727
a(lp1728
VBUTTOCK
p1729
aVHENTOFF
p1730
aVMCLINTOCK
p1731
aVTICKEDOFF
p1732
aVTICKETBOOTH
p1733
aaa(lp1734
S'4/23/2014'
p1735
a(lp1736
VATROPHIED
p1737
aVNOREPLY
p1738
aVSUPERC
p1739
aVTHEDIE
p1740
aaa(lp1741
S'4/24/2014'
p1742
a(lp1743
VCLUESHASEXACTLY
p1744
aVEVERYONEOFTHE
p1745
aVFOURSYLLABLES
p1746
aVLIFEBELTS
p1747
aaa(lp1748
S'4/25/2014'
p1749
a(lp1750
VADRIANA
p1751
aVANDBE
p1752
aVCATERWAUL
p1753
aVCHILLAX
p1754
aVESURANCE
p1755
aVEXAMPAPER
p1756
aVGATHERER
p1757
aVIMSTUCK
p1758
aVINFOMANIA
p1759
aVRAISEHELL
p1760
aaa(lp1761
S'4/26/2014'
p1762
a(lp1763
VBELTSANDER
p1764
aVHOWDAREYOU
p1765
aVINAUGURALS
p1766
aVMELONBALLS
p1767
aVOKBUT
p1768
aVPROTESTVOTE
p1769
aVRACECARD
p1770
aVRETROVIRUS
p1771
aVSKYBOXSEATS
p1772
aVWALTDISNEYWORLD
p1773
aVWIFESWAP
p1774
aaa(lp1775
S'4/27/2014'
p1776
a(lp1777
VBLEWTHEJOINT
p1778
aVDUCTTAPE
p1779
aVFLEWTHECOOP
p1780
aVFRUTTI
p1781
aVMADETRACKS
p1782
aVMONARCH
p1783
aVMOVEDON
p1784
aVPURVIEW
p1785
aVQUITTHESCENE
p1786
aVRANLICKETYSPLIT
p1787
aVSLIPPEDAWAY
p1788
aVTOOKOFF
p1789
aVWASGONEINAFLASH
p1790
aaa(lp1791
S'4/28/2014'
p1792
a(lp1793
VBODYDOUBLES
p1794
aaa(lp1795
S'4/29/2014'
p1796
a(lp1797
VCOVERALLS
p1798
aVSUNWORSHIPER
p1799
aVTIMESTABLECHART
p1800
aaa(lp1801
S'4/30/2014'
p1802
a(lp1803
VMACVSPC
p1804
aVSHARPCURVE
p1805
aVSTRIPCLUB
p1806
aaa(lp1807
S'5/1/2014'
p1808
a(lp1809
VABDUCTION
p1810
aVCOWARDS
p1811
aVMIDPOINTS
p1812
aaa(lp1813
S'5/2/2014'
p1814
a(lp1815
VANOINTEDONE
p1816
aVCLICKBAIT
p1817
aVCROSSEDEYES
p1818
aVFACESOFF
p1819
aVFIVETHIRTYEIGHT
p1820
aVGRINNING
p1821
aVIDONTLIE
p1822
aVIKEAS
p1823
aVINSOMNIAC
p1824
aVOUTSPOKEN
p1825
aVRESEWN
p1826
aVSTOPPEDBY
p1827
aVVARDALOS
p1828
aaa(lp1829
S'5/3/2014'
p1830
a(lp1831
VAGENTJ
p1832
aVALASKANKINGCRAB
p1833
aVALPHASIG
p1834
aVBABAORILEY
p1835
aVBOYSOPRANO
p1836
aVCOMELAST
p1837
aVCREEM
p1838
aVDIETZ
p1839
aVDOTHEJOB
p1840
aVHEELERS
p1841
aVMAKESAMESS
p1842
aVMURDERINC
p1843
aVPCHELP
p1844
aVPLACENAME
p1845
aVPSALMIST
p1846
aVSLAMDANCED
p1847
aVTIMESTAMP
p1848
aVTOPHONORS
p1849
aaa(lp1850
S'5/4/2014'
p1851
a(lp1852
VBETTES
p1853
aVDARESTO
p1854
aVDEBUTALBUM
p1855
aVDECKER
p1856
aVDOUBLEEDGED
p1857
aVESCALE
p1858
aaa(lp1859
S'5/5/2014'
p1860
a(lp1861
VBJORN
p1862
aVFLAGMAN
p1863
aVITSABOUTNOTHING
p1864
aVLAUGHTRACK
p1865
aVSQUIRMY
p1866
aVTRINILOPEZ
p1867
aVWURLITZERORGANS
p1868
aaa(lp1869
S'5/6/2014'
p1870
a(lp1871
VBALLPIT
p1872
aVCAMEEASY
p1873
aVICECREAMTRUCK
p1874
aVLOOKLIKE
p1875
aVPRECALC
p1876
aVSWIZZLESTICKS
p1877
aaa(lp1878
S'5/7/2014'
p1879
a(lp1880
VANDAWAYWEGO
p1881
aVAONEANDATWO
p1882
aVCOHOE
p1883
aVFORTYLOVE
p1884
aVITSSHOWTIME
p1885
aaa(lp1886
S'5/8/2014'
p1887
a(lp1888
VEXERCISE
p1889
aaa(lp1890
S'5/9/2014'
p1891
a(lp1892
VCATCHACOLD
p1893
aVDIETRITE
p1894
aVKEYTAGS
p1895
aVKIBBLE
p1896
aVKRUGMAN
p1897
aVMOTJUSTE
p1898
aVSIZEUP
p1899
aaa(lp1900
S'5/10/2014'
p1901
a(lp1902
VCRAZYBONE
p1903
aVDREAMLAND
p1904
aVMCMANSION
p1905
aaa(lp1906
S'5/11/2014'
p1907
a(lp1908
VAI
p1909
aVCOUNTRY
p1910
aVDONTSTARTINONME
p1911
aVEM
p1912
aVGRUDGED
p1913
aVHE
p1914
aVIMSOSURE
p1915
aVJOEBIDEN
p1916
aVLAUGHLINES
p1917
aVMATURATION
p1918
aVMESSABOUT
p1919
aVOH
p1920
aVOVERTHROWS
p1921
aVPALISADES
p1922
aVPLATELETS
p1923
aVPOLEBARN
p1924
aVPUTTINGONWEIGHT
p1925
aVSEXUP
p1926
aVSHORTI
p1927
aaa(lp1928
S'5/12/2014'
p1929
a(lp1930
VHOTFOOT
p1931
aaa(lp1932
S'5/13/2014'
p1933
a(lp1934
VAGAINSTTHEWIND
p1935
aVAINTNOSUNSHINE
p1936
aVHOTHOTHOT
p1937
aaa(lp1938
S'5/14/2014'
p1939
a(lp1940
VESPRESSOMAKERS
p1941
aVTURNINGAPROPHET
p1942
aVZIGGED
p1943
aaa(lp1944
S'5/15/2014'
p1945
a(lp1946
VALLISANDEARS
p1947
aVANIFORANEYE
p1948
aVBETTEDAVISIS
p1949
aVHUGHLAURIE
p1950
aVLAYISON
p1951
aVWANDERINGIS
p1952
aaa(lp1953
S'5/16/2014'
p1954
a(lp1955
VARING
p1956
aVENTRANCEFEES
p1957
aVKITTENCHOW
p1958
aVLASTHURRAH
p1959
aVLETITBLEED
p1960
aVMULTIPOLAR
p1961
aVWHATEVERITTAKES
p1962
aaa(lp1963
S'5/17/2014'
p1964
a(lp1965
VBUGBEARS
p1966
aVCAMELCAVALRY
p1967
aVCAMERATRIPOD
p1968
aVDOCE
p1969
aVFASTPACE
p1970
aVFTLBS
p1971
aVGOTUPSET
p1972
aVLUCKBEALADY
p1973
aVPAOLOVERONESE
p1974
aaa(lp1975
S'5/18/2014'
p1976
a(lp1977
VANGIEOGRAM
p1978
aVBIGINJAPAN
p1979
aVCARNAP
p1980
aVCCIV
p1981
aVCLERKSTALE
p1982
aVCOREYOGRAPH
p1983
aVDAWNON
p1984
aVJEANOTYPING
p1985
aVJUNEOALASKA
p1986
aVMAEOCLINIC
p1987
aVMELOYELLOW
p1988
aVNATEOSUMMIT
p1989
aVPAPERLACE
p1990
aVPATTYOFURNITURE
p1991
aVPHOTONS
p1992
aVREROOF
p1993
aVSHIPSTO
p1994
aVSHOOTSUP
p1995
aVTOOKILL
p1996
aVWEINSTEIN
p1997
aVWILLOTREES
p1998
aaa(lp1999
S'5/19/2014'
p2000
a(lp2001
VCHINASHOP
p2002
aVDIALITDOWN
p2003
aVICEBRIDGE
p2004
aVOFFTHEHOOK
p2005
aVPHONEITIN
p2006
aVWHATISTHEHANGUP
p2007
aaa(lp2008
S'5/20/2014'
p2009
a(lp2010
VAMANDOWN
p2011
aVBRONCOSTADIUM
p2012
aVDELMONICOSTEAKS
p2013
aVHIDDENCOST
p2014
aVTACOSTANDS
p2015
aVTEXACOSTATION
p2016
aaa(lp2017
S'5/21/2014'
p2018
a(lp2019
VBANNEDLIEDER
p2020
aVBEWIG
p2021
aVBLIGHTS
p2022
aVBRIN
p2023
aVBUONA
p2024
aVCASABAS
p2025
aVGIRLSDORM
p2026
aVHOARSESHOOS
p2027
aVPLANERAPPER
p2028
aVTEAURN
p2029
aVTVVIEWERS
p2030
aVWHIRLEDPIECE
p2031
aaa(lp2032
S'5/22/2014'
p2033
a(lp2034
VANOTHERONETHING
p2035
aVCIBEFOREEEXCEPT
p2036
aVPILLMORNING
p2037
aVREADINGBURN
p2038
aV2DOWNPAT
p2039
aV3CONGAME
p2040
aV5ACEHIGH
p2041
aVGRIFT
p2042
aV7ROXIE
p2043
aV8SITH
p2044
aV9QEII
p2045
aaa(lp2046
S'5/23/2014'
p2047
a(lp2048
VAIRGUNS
p2049
aVCAROUSES
p2050
aVDAZZLED
p2051
aVDIZZIED
p2052
aVEMBEZZLER
p2053
aVFOOZLER
p2054
aVGAZZARA
p2055
aVGUZZLES
p2056
aVLATEAUTUMN
p2057
aVNOGALES
p2058
aVPUZZLEOUT
p2059
aVTIZZIES
p2060
aaa(lp2061
S'5/24/2014'
p2062
a(lp2063
VEYESFRONT
p2064
aVJIMMYSWAGGART
p2065
aVLOWCOMEDY
p2066
aVNEKO
p2067
aVNICEWORK
p2068
aVNOODLEDAROUND
p2069
aVOVERLORD
p2070
aVRAMBLEON
p2071
aVTAXFRAUD
p2072
aVTHEWHOSELLOUT
p2073
aVTHEWOMB
p2074
aVTOMHOOPER
p2075
aaa(lp2076
S'5/25/2014'
p2077
a(lp2078
VAMERICANIDYLL
p2079
aVAWAVE
p2080
aVBRAKINGBAD
p2081
aVDAZEOFOURLIVES
p2082
aVMIAMIVISE
p2083
aVROURKE
p2084
aVSECTSANDTHECITY
p2085
aVTHEAWEDCOUPLE
p2086
aVTHEEXFILES
p2087
aVTWINPEEKS
p2088
aaa(lp2089
S'5/26/2014'
p2090
a(lp2091
VKNOCKONWOOD
p2092
aVSEAWALLS
p2093
aVSILVERBELLS
p2094
aaa(lp2095
S'5/27/2014'
p2096
a(lp2097
VBABYBLUE
p2098
aVFLIPPHONE
p2099
aVSCHOOLWORK
p2100
aaa(lp2101
S'5/28/2014'
p2102
a(lp2103
VBALDASACOOT
p2104
aVBIGASAWHALE
p2105
aVBLINDASABAT
p2106
aVBUSYASABEE
p2107
aVFATASACOW
p2108
aVLOCALPUB
p2109
aVTRASHBIN
p2110
aaa(lp2111
S'5/29/2014'
p2112
a(lp2113
VBUBBLEWRAP
p2114
aVEPICNESS
p2115
aVGAYANTHEM
p2116
aVNEARSHORE
p2117
aVORAS
p2118
aVSHTUP
p2119
aVSPACEMARK
p2120
aVTICTACTOEBOARD
p2121
aVTWITTERHASHTAG
p2122
aaa(lp2123
S'5/30/2014'
p2124
a(lp2125
VBEATPOET
p2126
aVFINEPRINT
p2127
aVHERSTORY
p2128
aVINDIAARIE
p2129
aVOVERSHARE
p2130
aVTAKEASTAB
p2131
aVUNUSUALLY
p2132
aaa(lp2133
S'5/31/2014'
p2134
a(lp2135
VENTRAILS
p2136
aVJERSEYITE
p2137
aVPOOLNOODLE
p2138
aVSNOWGLOBE
p2139
aVTIGERMOTH
p2140
aaa(lp2141
S'6/1/2014'
p2142
a(lp2143
VAFAREWELLTOALARMS
p2144
aVCANALOFWORMS
p2145
aVCHANGEOFPALACE
p2146
aVCIRCUSTALENT
p2147
aVIDEALSOFMARCH
p2148
aVLONGPANTS
p2149
aVMESE
p2150
aVOFMALICEANDMEN
p2151
aVPRESELECTS
p2152
aVPULLER
p2153
aVSOMUCH
p2154
aVSPRINGFALLING
p2155
aaa(lp2156
S'6/2/2014'
p2157
a(lp2158
VSMARTALECK
p2159
aVSMUTTY
p2160
aaa(lp2161
S'6/3/2014'
p2162
a(lp2163
VALLTHETRIMMINGS
p2164
aVALPINELACE
p2165
aVBULKY
p2166
aVCYBERPUNK
p2167
aVENCRYPTED
p2168
aVLUNATICFRINGE
p2169
aVPABSTBLUERIBBON
p2170
aVSPINALCORD
p2171
aaa(lp2172
S'6/4/2014'
p2173
a(lp2174
VCHOICES
p2175
aaa(lp2176
S'6/5/2014'
p2177
a(lp2178
VBRIGHAMYOUNG
p2179
aVLIVERY
p2180
aVRSVPED
p2181
aVWIREUP
p2182
aaa(lp2183
S'6/6/2014'
p2184
a(lp2185
VANABIOSIS
p2186
aVANITAHILL
p2187
aVANTNEST
p2188
aVARCADEFIRE
p2189
aVBIDING
p2190
aVDAKARRALLY
p2191
aVHEINIES
p2192
aVJACOBZUMA
p2193
aVKARST
p2194
aVNARUTO
p2195
aVSPECIESISM
p2196
aVVAPIDNESS
p2197
aaa(lp2198
S'6/7/2014'
p2199
a(lp2200
VFEARNOT
p2201
aVFOOSBALL
p2202
aVOUTCOMES
p2203
aVSPAMBOT
p2204
aVWALKOFF
p2205
aaa(lp2206
S'6/8/2014'
p2207
a(lp2208
VARTOODETOX
p2209
aVBEAUTYCONTEXT
p2210
aVBOXYDOUBLE
p2211
aVDAYBEDS
p2212
aVDESSERTXRAY
p2213
aVEMBOSSED
p2214
aVEVERGREENTREX
p2215
aVFOXFIGHTER
p2216
aVHUMMERS
p2217
aVLESSERAPEX
p2218
aVSKIPTOMYLOX
p2219
aVSMILEYFAXES
p2220
aVTHEARTOFWAX
p2221
aaa(lp2222
S'6/9/2014'
p2223
a(lp2224
VEXTENDEDSTAY
p2225
aVOLDSTYLE
p2226
aVWIDERECEIVER
p2227
aaa(lp2228
S'6/10/2014'
p2229
a(lp2230
VCLOSETOYOU
p2231
aVEDISONISDONE
p2232
aVMONROENOMORE
p2233
aVNEWTONWENTON
p2234
aVPASSINGNOTES
p2235
aV2KUDO
p2236
aVSIDESADDLE
p2237
aV5LEANIN
p2238
aV9ASADA
p2239
aVLAKES
p2240
aaa(lp2241
S'6/11/2014'
p2242
a(lp2243
VFOURALARM
p2244
aVPOKERROOM
p2245
aaa(lp2246
S'6/12/2014'
p2247
a(lp2248
VHUMIDITY
p2249
aVMEGILLAH
p2250
aVTHEWHOLE
p2251
aVUNCLENCH
p2252
aaa(lp2253
S'6/13/2014'
p2254
a(lp2255
VBASELY
p2256
aVCHOCOLATECOOKIE
p2257
aVISHOTTHESHERIFF
p2258
aVPACELAP
p2259
aVSKINNERBOX
p2260
aVSOULJABOYTELLEM
p2261
aVWORDIER
p2262
aaa(lp2263
S'6/14/2014'
p2264
a(lp2265
VCRANBERRYBOG
p2266
aVEDWARDNORTON
p2267
aVFINIAL
p2268
aVGOROGUE
p2269
aVIDIOSYNCRASY
p2270
aVISLAMIST
p2271
aVJILTED
p2272
aVPOINTOFORDER
p2273
aVSTAKING
p2274
aVZONKOUT
p2275
aaa(lp2276
S'6/15/2014'
p2277
a(lp2278
VALINING
p2279
aVCANIBEFRANKEN
p2280
aVCOENORDINATION
p2281
aVENSIGNOFTHEZODIAC
p2282
aVINREPAIR
p2283
aVLEAVENINGLASVEGAS
p2284
aVLETERRIPEN
p2285
aVPREPARATIONHEN
p2286
aVRAMENTOUGH
p2287
aVTHEEGG
p2288
aaa(lp2289
S'6/16/2014'
p2290
a(lp2291
VBACKBITERS
p2292
aVBARBELL
p2293
aVBEEFBROTH
p2294
aVBELABARTOK
p2295
aVBREAKBREAD
p2296
aaa(lp2297
S'6/17/2014'
p2298
a(lp2299
VJOHNGOODMAN
p2300
aVKNIGHTANDDAY
p2301
aVPOWERPLANTS
p2302
aaa(lp2303
S'6/18/2014'
p2304
a(lp2305
VBLANKTILE
p2306
aVPOSSIBLY
p2307
aVSPAZZES
p2308
aVTSKTSKS
p2309
aVWORDFREAK
p2310
aV3PRICK
p2311
aVUPTOP
p2312
aV4JOADS
p2313
aVTAKESTEN
p2314
aV5JUJITSU
p2315
aVSHRIEKS
p2316
aVZOOMIN
p2317
aV6AZALEAS
p2318
aVVARIES
p2319
aV7COHORT
p2320
aV8FANTA
p2321
aV9EMINOR
p2322
aVHOBOS
p2323
aVJETTA
p2324
aVKREME
p2325
aVXEROXED
p2326
aaa(lp2327
S'6/19/2014'
p2328
a(lp2329
VASKSOF
p2330
aVCONTORTIONIST
p2331
aVCUESTICKS
p2332
aVENTICINGLY
p2333
aVGRANDPARENTS
p2334
aVHIQ
p2335
aVMONETIZES
p2336
aVPOLITEST
p2337
aVPOWERLINE
p2338
aVPREX
p2339
aVRESOUNDED
p2340
aVSPITANDPOLISH
p2341
aVTHINASARAIL
p2342
aaa(lp2343
S'6/20/2014'
p2344
a(lp2345
VASCENTOFEVEREST
p2346
aVCLEARONESTHROAT
p2347
aVDINNERSET
p2348
aVLORA
p2349
aVREALESTATESALES
p2350
aVRESTORETOHEALTH
p2351
aVSTAFFA
p2352
aVWHENIMGONE
p2353
aVWISDOMOFSOLOMON
p2354
aaa(lp2355
S'6/21/2014'
p2356
a(lp2357
VASKAN
p2358
aVATTACKADS
p2359
aVEDMCBAIN
p2360
aVHOVEROVER
p2361
aVIODIZES
p2362
aVNADERITE
p2363
aVNONI
p2364
aVOUTLANDERS
p2365
aVSKITEAM
p2366
aVSONGCYCLE
p2367
aVSOURCECODE
p2368
aVSTALINERA
p2369
aVTADLINCOLN
p2370
aVTAUTEST
p2371
aVTOLEDAN
p2372
aVTOURDATES
p2373
aaa(lp2374
S'6/22/2014'
p2375
a(lp2376
VCENTENNIAL
p2377
aVCENTIPEDES
p2378
aVDECENTMEAL
p2379
aVIMINNOCENT
p2380
aVIRIDESCENT
p2381
aVITSBAD
p2382
aVLIGHTENER
p2383
aVLINGERING
p2384
aVNORELATION
p2385
aVRECENTPAST
p2386
aVSMOOTHEN
p2387
aVSTATEDEPT
p2388
aVTHENILE
p2389
aVVICENTEFOX
p2390
aaa(lp2391
S'6/23/2014'
p2392
a(lp2393
VAROUNDTHEWORLD
p2394
aVFLYINGTRAPEZE
p2395
aVORSAY
p2396
aVROCKTHECRADLE
p2397
aVWALKTHEDOG
p2398
aVWASANGRY
p2399
aaa(lp2400
S'6/24/2014'
p2401
a(lp2402
VICEMELT
p2403
aVMULTIPLAYER
p2404
aVRAMPEDUP
p2405
aVSTANDBYMODE
p2406
aVSUBCONTRACT
p2407
aaa(lp2408
S'6/25/2014'
p2409
a(lp2410
VBUSROUTE
p2411
aVGREEKMYTH
p2412
aVLEGOLAND
p2413
aVLISTLESSFEELING
p2414
aVMRSWHO
p2415
aVRUTHLESSTACTICS
p2416
aVTHEDUDE
p2417
aVTIRELESSWORKERS
p2418
aaa(lp2419
S'6/26/2014'
p2420
a(lp2421
VALERTER
p2422
aVBALLOTED
p2423
aVBARNARD
p2424
aVBROACHED
p2425
aVBROOMED
p2426
aaa(lp2427
S'6/27/2014'
p2428
a(lp2429
VAPPLAUDS
p2430
aVBARONMUNCHAUSEN
p2431
aVBOOKRETURN
p2432
aVCLOPPED
p2433
aVDOUBLEENTENDRES
p2434
aVGIMEL
p2435
aVHOTASBLUEBLAZES
p2436
aVITHAS
p2437
aaa(lp2438
S'6/28/2014'
p2439
a(lp2440
VDETERMINED
p2441
aVELVISH
p2442
aVMOTORHOMES
p2443
aVSTARTSMALL
p2444
aaa(lp2445
S'6/29/2014'
p2446
a(lp2447
VASINK
p2448
aVBEARFUR
p2449
aVBICKER
p2450
aVBLINDBID
p2451
aVCANONIND
p2452
aVCHIVALRYISDEAD
p2453
aVCHRISTMASINDIXIE
p2454
aVCONSIDERITDONE
p2455
aVCOVEREDINDUST
p2456
aVCOXING
p2457
aVCRISISINDARFUR
p2458
aVESTIVATE
p2459
aVFILMINDUSTRIES
p2460
aVHOGCALLER
p2461
aVIHADAHUNCH
p2462
aVIVEMADEADECISION
p2463
aVLEGPAD
p2464
aVNAZIERA
p2465
aVNODOGS
p2466
aVOFFBALANCE
p2467
aVONPITCH
p2468
aVPADDEDBRA
p2469
aVSALTMINING
p2470
aVSEAHOLLY
p2471
aVSPIKEDACES
p2472
aVVIKE
p2473
aVWINNDIXIE
p2474
aVYEARLYPHYSICAL
p2475
aaa(lp2476
S'6/30/2014'
p2477
a(lp2478
VBOBBYFLAY
p2479
aVTRAFFICFLOW
p2480
aaa(lp2481
S'7/1/2014'
p2482
a(lp2483
VCANNONBALL
p2484
aVDONTSTOPBELIEVIN
p2485
aVDONTWORRYBABY
p2486
aVDONTYOUCARE
p2487
aVDONTYOUWANTME
p2488
aVRINGALEVIO
p2489
aaa(lp2490
S'7/2/2014'
p2491
a(lp2492
VBOARSBOREBOERS
p2493
aVIDYLLSIDLEIDOLS
p2494
aVPAIRSPAREPEARS
p2495
aVPEAKSPIQUEPEKES
p2496
aVSETSARECORD
p2497
aaa(lp2498
S'7/3/2014'
p2499
a(lp2500
VASHLEYOLSEN
p2501
aVCASHOUT
p2502
aVMOUNTSTHELENS
p2503
aVONASHORTLEASH
p2504
aVSPLASHDOWN
p2505
aVTHRASHES
p2506
aVWASHINGASHORE
p2507
aaa(lp2508
S'7/4/2014'
p2509
a(lp2510
VAGRICOLA
p2511
aVBATTLESCARRED
p2512
aVBEFOREIFORGET
p2513
aVBESTIRS
p2514
aVHAVEANICETRIP
p2515
aVIMBUSY
p2516
aVIRISHPUB
p2517
aVMARGINOFERROR
p2518
aVMETHADONE
p2519
aVTURNEDRED
p2520
aVVIESFOR
p2521
aaa(lp2522
S'7/5/2014'
p2523
a(lp2524
VBADAREAS
p2525
aVBIKERCHICK
p2526
aVBINGEDON
p2527
aVCELLULOSE
p2528
aVCOOLHEAD
p2529
aVDIVEBAR
p2530
aVDRAFTEE
p2531
aVFILENAME
p2532
aVGEAROIL
p2533
aVGENDERBIAS
p2534
aVJIMBEAM
p2535
aVNOMERCY
p2536
aVOVIFORM
p2537
aVROLLINGON
p2538
aVSCARFRING
p2539
aVSUNGOD
p2540
aaa(lp2541
S'7/6/2014'
p2542
a(lp2543
VBALTIMOREHARBOR
p2544
aVBRITISHPUBSONG
p2545
aVBROWNBELT
p2546
aVCOLDCASH
p2547
aVEIGHTEENFOURTEEN
p2548
aVFACTOTUM
p2549
aVFISHEGG
p2550
aVFRANCISSCOTTKEY
p2551
aVGASOL
p2552
aVPRISONEREXCHANGE
p2553
aVRNC
p2554
aVTATTOOED
p2555
aVWHITNEYHOUSTON
p2556
aaa(lp2557
S'7/7/2014'
p2558
a(lp2559
VXWord
p2560
aVInfo
p2561
aV--
p2562
aVFreshness
p2563
aVFactor
p2564
ag518
ag519
aVfont-size:
p2565
aV10pt;
p2566
aVmargin-right:
p2567
aV150px;
p2568
ag524
aVtable.FreshTable
p2569
ag519
aVmargin-top:30px;
p2570
aVwidth:728px;
p2571
ag524
aVtable.FreshTable
p2572
aVtd
p2573
ag519
aVword-spacing:12px;
p2574
aVpadding:
p2575
aV2px
p2576
aV6px;
p2577
ag524
aVtable.FreshTable
p2578
aVtd.cen
p2579
ag519
aVborder-right:
p2580
aV1px
p2581
aVsolid
p2582
aV#a0a0a0;
p2583
ag524
aV.wow
p2584
ag519
aVmargin-left:10px;
p2585
aVfont-size:18px;
p2586
aVpadding:
p2587
aV4px
p2588
aV12px;
p2589
aVbackground-color:#ffff99;
p2590
aVborder:
p2591
aV1px
p2592
aVsolid
p2593
aVgray;
p2594
aVfloat:right;
p2595
aVmargin-right:50px;
p2596
ag524
aV.unavailable
p2597
ag519
aVcolor:
p2598
aV#990000;
p2599
aVfont-weight:
p2600
aVbold;
p2601
ag524
aV$(function
p2602
aV()
p2603
ag519
aVTTBind('.dtlink');
p2604
aV});
p2605
aVXWord
p2606
aVInfo
p2607
aVHome
p2608
aVPrevious
p2609
ag575
aVNext
p2610
ag575
aVFull
p2611
aVpuzzle
p2612
aVview
p2613
ag575
aVAnalyze
p2614
aVXWord
p2615
aVInfo
p2616
aVFreshness
p2617
aVFactor\u2122
p2618
aVFF:
p2619
aV39.223.6
p2620
aVpercentile,
p2621
aV58.3
p2622
aVMonday
p2623
aVpercentile
p2624
aVMonday,
p2625
aVJuly
p2626
aV7,
p2627
aV2014
p2628
aVby
p2629
aVLynn
p2630
aVLempel
p2631
aV\u2014
p2632
ag599
aVUnique
p2633
aVwords
p2634
aVMon
p2635
aV7/7/2014
p2636
aVBRAGDAWGPOTS
p2637
aVMALEOKIELATHE
p2638
aVWHITEWASHONION
p2639
aVSSSPRICECUT
p2640
aVBELATEDISIT
p2641
aVELITEERGSTRAP
p2642
aVAIMEPEEUSAUSA
p2643
aVUSBMINDSETNPR
p2644
aVTHEISTYODAOIL
p2645
aVYARNICEDTRURO
p2646
aVFLEASWEATER
p2647
aVEXTRADRYELS
p2648
aVDROOPHONEYCOMB
p2649
aVEARNSOWEDAREA
p2650
aVNYETPLOYLEWD
p2651
aVThe
p2652
aVchart
p2653
aVbelow
p2654
aVshows
p2655
aVthe
p2656
aVnumber
p2657
aVof
p2658
aVother
p2659
aVtimes
p2660
aVeach
p2661
aVword
p2662
aVin
p2663
aVthis
p2664
aVpuzzle
p2665
aVhas
p2666
aVbeen
p2667
aVused
p2668
aVin
p2669
aVthe
p2670
aVModern
p2671
aVEra
p2672
aVso
p2673
aVwords
p2674
aVat
p2675
aVthe
p2676
aVtop
p2677
aVof
p2678
aVthe
p2679
aVlist
p2680
aVare
p2681
aVthe
p2682
aVrarest.
p2683
aVThe
p2684
aVFreshness
p2685
aVFactor
p2686
aVis
p2687
aVdetermined
p2688
aVby
p2689
aVsubtracting
p2690
aVthe
p2691
aVaverage
p2692
aVcount
p2693
aVfrom
p2694
aV100.
p2695
aVSince
p2696
aVFreshness
p2697
aVFactor
p2698
aVerodes
p2699
aVover
p2700
aVtime
p2701
aVas
p2702
aVmore
p2703
aVpuzzles
p2704
aVget
p2705
aVadded
p2706
aVto
p2707
aVthe
p2708
aVdatabase,
p2709
aVpercentiles
p2710
aVare
p2711
ag679
aVmuch
p2712
aVmore
p2713
aVmeaningful
p2714
aVmeasurement.
p2715
aVThe
p2716
aVoverall
p2717
aVpercentile
p2718
aVcompares
p2719
aVthis
p2720
aVpuzzle
p2721
aVto
p2722
aVall
p2723
aVpuzzles
p2724
aVin
p2725
aVthe
p2726
aVdatabase.
p2727
aVThe
p2728
aVday-of-week
p2729
aVpercentile
p2730
aVonly
p2731
aVcompares
p2732
aVagainst
p2733
aVother
p2734
aVpuzzles
p2735
aVpublished
p2736
aVon
p2737
aVthe
p2738
aVsame
p2739
aVweekday.
p2740
aVThis
p2741
aVallows
p2742
aVpuzzles
p2743
aVthat
p2744
aVare,
p2745
aVfor
p2746
aVexample,
p2747
aV"fresh
p2748
aVfor
p2749
ag679
aVMonday"
p2750
aVto
p2751
aVget
p2752
aVproper
p2753
aVcredit.
p2754
aVFor
p2755
aVexample,
p2756
ag679
aVpercentile
p2757
aVof
p2758
aV75
p2759
aVwould
p2760
aVmean
p2761
aVthat
p2762
aVfor
p2763
aVthis
p2764
aVpuzzle,
p2765
aVonly
p2766
aV25%
p2767
aVof
p2768
aVall
p2769
aVpuzzles
p2770
aV(or
p2771
aVpuzzles
p2772
aVfor
p2773
aVthis
p2774
aVday
p2775
aVof
p2776
aVweek)
p2777
aVhave
p2778
ag679
aVhigher
p2779
aVFreshness
p2780
aVFactor.
p2781
aVNote
p2782
aVthat
p2783
aVthis
p2784
aVcompletely
p2785
aVmathematical
p2786
aVcalculation
p2787
aVdoes
p2788
aVnot
p2789
aVand
p2790
aVcannot
p2791
aVinclude
p2792
aVsuch
p2793
aVsubjective
p2794
aVfactors
p2795
aVas
p2796
aVthe
p2797
aVcleverness
p2798
aVof
p2799
aVthe
p2800
aVclues.
p2801
aVObscure
p2802
aVwords
p2803
aVare
p2804
aV"fresh"
p2805
aVbut
p2806
aVmay
p2807
aVnot
p2808
aVbe
p2809
aVany
p2810
aVgood.
p2811
aVClick
p2812
aVon
p2813
aVany
p2814
aVanswer
p2815
aVword
p2816
aVbelow
p2817
aVto
p2818
aVsee
p2819
aVall
p2820
aVthe
p2821
aVdefinitions
p2822
aVfor
p2823
aVthat
p2824
aVword.
p2825
aVCountWord
p2826
aaa(lp2827
S'7/8/2014'
p2828
a(lp2829
VAIRSHIP
p2830
aVCOFFEEROLL
p2831
aVHIGHENERGY
p2832
aVOPENSPACE
p2833
aVSPORTSNUT
p2834
aaa(lp2835
S'7/9/2014'
p2836
a(lp2837
VATONEGO
p2838
aVBEERGUT
p2839
aVDOODLES
p2840
aVJUSTARRIVED
p2841
aVSTARSTUDDED
p2842
aVTORTUGA
p2843
aVTOURISTAREA
p2844
aVWISECRACKS
p2845
aaa(lp2846
S'7/10/2014'
p2847
a(lp2848
VAESTHETES
p2849
aVHONESTWOMAN
p2850
aVMNEMONIC
p2851
aVSEESINTO
p2852
aVSILENTHILL
p2853
aVSILENTMOVIE
p2854
aVSILENTPARTNER
p2855
aVSILENTSPRING
p2856
aaa(lp2857
S'7/11/2014'
p2858
a(lp2859
VAIRFORCE
p2860
aVBARCA
p2861
aVBUTTS
p2862
aVFACEBOOKFRIENDS
p2863
aVGAUZEPAD
p2864
aVSEVENCENT
p2865
aVSEWERLINE
p2866
aVSKIPARKAS
p2867
aVTASTESBAD
p2868
aaa(lp2869
S'7/12/2014'
p2870
a(lp2871
VARIZONACARDINAL
p2872
aVCUTLETS
p2873
aVIMINAWE
p2874
aVSCOWLED
p2875
aVSEMISOFTCHEESES
p2876
aVTAPPANZEEBRIDGE
p2877
aVTOGGLED
p2878
aaa(lp2879
S'7/13/2014'
p2880
a(lp2881
VCHEWSOUT
p2882
aVENOUGHISENOUGH
p2883
aVHATERSGONNAHATE
p2884
aVITAINTOVERTILLITSOVER
p2885
aVITISWHATITIS
p2886
aVIYAMWHATIYAM
p2887
aVLIGAND
p2888
aVLILTER
p2889
aVRATTLERS
p2890
aVSOLARIUM
p2891
aVTITRATES
p2892
aVWESTWING
p2893
aaa(lp2894
S'7/14/2014'
p2895
a(lp2896
VCONFINEDTO
p2897
aVDOUBLESTUFOREO
p2898
aVLAUDING
p2899
aVPAGELAYOUT
p2900
aVSUBARUFORESTER
p2901
aVUFOSIGHTING
p2902
aVYOUFORGOTME
p2903
aV2FOGHORN
p2904
aVGRUBS
p2905
aV4HURRAH
p2906
aV6DORSAL
p2907
aV8MITRE
p2908
aV9ADIME
p2909
aVGHENT
p2910
aVSCALENE
p2911
aaa(lp2912
S'7/15/2014'
p2913
a(lp2914
VBREAKSUP
p2915
aVJEFFBEZOS
p2916
aVSAMWALTON
p2917
aaa(lp2918
S'7/16/2014'
p2919
a(lp2920
VEQUILATERAL
p2921
aVTEXTERS
p2922
aaa(lp2923
S'7/17/2014'
p2924
a(lp2925
VPROLIFE
p2926
aVTRUELOVES
p2927
aaa(lp2928
S'7/18/2014'
p2929
a(lp2930
VBEDHOP
p2931
aVEYEBATH
p2932
aVFIREHOSES
p2933
aVGELCAPS
p2934
aVIGETITOKAY
p2935
aVRAPGROUPS
p2936
aVRUSSIANMOB
p2937
aVSLEAZEBALL
p2938
aVTEAMSPORTS
p2939
aVTERRELL
p2940
aVTHEREBELS
p2941
aVYAHEARD
p2942
aaa(lp2943
S'7/19/2014'
p2944
a(lp2945
VFORYOURLOVE
p2946
aVGOTOYOURROOM
p2947
aVIRISHALE
p2948
aVLIEUP
p2949
aVMULTITASK
p2950
aVPRETZELLOOP
p2951
aVWILDCARDTEAM
p2952
aVWROTEON
p2953
aaa(lp2954
S'7/20/2014'
p2955
a(lp2956
VALITTLEGIVEANDTAKE
p2957
aVFALLOUT
p2958
aVNOTATION
p2959
aVRECHAINS
p2960
aVROUNDUP
p2961
aVWHITTLE
p2962
aaa(lp2963
S'7/21/2014'
p2964
a(lp2965
VCLAMBAKE
p2966
aVCLASSIFIEDAD
p2967
aVHIDDENVALLEY
p2968
aVPRIVATEPARTS
p2969
aVSECRETGARDEN
p2970
aaa(lp2971
S'7/22/2014'
p2972
a(lp2973
VBEATENDOWN
p2974
aVDIRTBIKES
p2975
aVLASERDISC
p2976
aVREFILLED
p2977
aVREROLL
p2978
aaa(lp2979
S'7/23/2014'
p2980
a(lp2981
VBACKGROUNDSOUND
p2982
aVBLANKCHECK
p2983
aVDARKENS
p2984
aVPERSONALBAGGAGE
p2985
aVRUNCOLD
p2986
aVSWAGGER
p2987
aaa(lp2988
S'7/24/2014'
p2989
a(lp2990
VAAABATTERY
p2991
aVCHECKITOUT
p2992
aVCUTSINTO
p2993
aVDELVES
p2994
aVGETPAST
p2995
aVLETITSLIDE
p2996
aVSELECTEES
p2997
aVSOLANO
p2998
aaa(lp2999
S'7/25/2014'
p3000
a(lp3001
VARTICHOKES
p3002
aVBOTTLESHOP
p3003
aVBRITISHSOLDIERS
p3004
aVCHINCHILLA
p3005
aVCRUDEOIL
p3006
aVDOWNGOESFRAZIER
p3007
aVINFALLIBLE
p3008
aVOLDGOATS
p3009
aVOMNIPRESENT
p3010
aaa(lp3011
S'7/26/2014'
p3012
a(lp3013
VASCETICAL
p3014
aVJULIANA
p3015
aVLAZIO
p3016
aVLOVEBITE
p3017
aVMULATTO
p3018
aVPAUSING
p3019
aVPOSTERCHILD
p3020
aVRICRAC
p3021
aVRUNDMC
p3022
aVSEACREATURE
p3023
aVWOWFACTOR
p3024
aaa(lp3025
S'7/27/2014'
p3026
a(lp3027
VDEPICTED
p3028
aVDOOZIES
p3029
aVFARFEL
p3030
aVINTHERE
p3031
aVMAYISEEYOUAGAIN
p3032
aVMIGHTMAKESRIGHT
p3033
aVRIPPEDOFF
p3034
aVSHOWMETHEMONEY
p3035
aVSORRYWRONGNUMBER
p3036
aVTAKEMYWIFEPLEASE
p3037
aVTHROWTO
p3038
aaa(lp3039
S'7/28/2014'
p3040
a(lp3041
VBEHELD
p3042
aVHEYARNOLD
p3043
aVLOSELOSE
p3044
aVMINUTELY
p3045
aVSENESCED
p3046
aVSTRINGQUARTET
p3047
aVTHRUSH
p3048
aVTRYHARDS
p3049
aVVOCABLESSON
p3050
aaa(lp3051
S'7/29/2014'
p3052
a(lp3053
VGOATSBEARD
p3054
aVMESTIZA
p3055
aVSNAKEPLANT
p3056
aaa(lp3057
S'7/30/2014'
p3058
a(lp3059
VCHAFINGDISH
p3060
aVCOOKIESHEET
p3061
aVCUTTINGBOARD
p3062
aVGRADEONE
p3063
aVMEASURINGCUP
p3064
aVRINSEOFF
p3065
aVSHOPAT
p3066
aVTOGUP
p3067
aVTVCHANNELS
p3068
aaa(lp3069
S'7/31/2014'
p3070
a(lp3071
VCOMPUTERKEY
p3072
aVDISKSPACE
p3073
aVHOLYBIBLE
p3074
aVSPACESPACESPACESPACESPACESPACESPACE
p3075
aVSTARWARSCANTINA
p3076
aaa(lp3077
S'8/1/2014'
p3078
a(lp3079
VAIWEIWEI
p3080
aVBEANTOWN
p3081
aVCHACHING
p3082
aVDONEANDDONE
p3083
aVNEWAGEY
p3084
aVONAHUNCH
p3085
aVSIRKAY
p3086
aVTAKETHEFALL
p3087
aVTRUSTNOONE
p3088
aaa(lp3089
S'8/2/2014'
p3090
a(lp3091
VBLUESTATE
p3092
aVBUTTNAKED
p3093
aVMANENOUGH
p3094
aVORWELLIAN
p3095
aVPRIERS
p3096
aVSPYMASTER
p3097
aVTURDUCKEN
p3098
aaa(lp3099
S'8/3/2014'
p3100
a(lp3101
VARCHIERATEDMOVIE
p3102
aVARTDEALER
p3103
aVBANDE
p3104
aVBLACKTAICHI
p3105
aVCAMELHAIR
p3106
aVCAUGHT
p3107
aVFILTHYRITCHIE
p3108
aVHEREWEARE
p3109
aVIGUESSSOCHI
p3110
aVLYRICPOEM
p3111
aVROCAFELLA
p3112
aVTABLEFORTUCCI
p3113
aVTHELONESTARCHYSTATE
p3114
aVTIGHTLY
p3115
aVWOUNDEDNIETZSCHE
p3116
aaa(lp3117
S'8/4/2014'
p3118
a(lp3119
VAIRPLANESEATS
p3120
aVCRACKSAWINDOW
p3121
aVGODOWNTHEAISLE
p3122
aVMETINTHEMIDDLE
p3123
aVMISUSAGE
p3124
aVOWNAGUN
p3125
aaa(lp3126
S'8/5/2014'
p3127
a(lp3128
VBOTTLEFED
p3129
aVMARKSOFF
p3130
aVPATSDOWN
p3131
aVPETERSOUT
p3132
aaa(lp3133
S'8/6/2014'
p3134
a(lp3135
VCORNONTHECOQ
p3136
aVJERRYQUILT
p3137
aVQUEENSIZEQED
p3138
aVSHIFTY
p3139
aVSOITIS
p3140
aVTHEFAQFOUR
p3141
aaa(lp3142
S'8/7/2014'
p3143
a(lp3144
VARETHEREOTHER
p3145
aVDUSTMITE
p3146
aVEYESUP
p3147
aVHESGOTIT
p3148
aVJOACHIM
p3149
aVJUSTMEOR
p3150
aVOFEM
p3151
aVTACKIER
p3152
aaa(lp3153
S'8/8/2014'
p3154
a(lp3155
VGANGNAM
p3156
aVLEAPSAT
p3157
aVLOGSOUT
p3158
aVOILRICH
p3159
aVTHYROID
p3160
aaa(lp3161
S'8/9/2014'
p3162
a(lp3163
VCUBANCIGAR
p3164
aVFALLASLEEP
p3165
aVGINSBERG
p3166
aVGLASSONION
p3167
aVHOTTUBS
p3168
aVIMPOSEON
p3169
aVLASCAUX
p3170
aVMEMES
p3171
aVSPITSOUT
p3172
aVVARIABLY
p3173
aaa(lp3174
S'8/10/2014'
p3175
a(lp3176
VBUDDYSYSTEM
p3177
aVBYU
p3178
aVDRINKSIN
p3179
aVERGOMETER
p3180
aVHEREXCELLENCY
p3181
aVLEGWARMER
p3182
aVMALLO
p3183
aVMILLIESMALL
p3184
aVNEWELL
p3185
aVNOLLE
p3186
aVSTATUETTE
p3187
aVSUNNYSIDEUP
p3188
aVTESTRIDES
p3189
aVWHITEHOUSEDOG
p3190
aaa(lp3191
S'8/11/2014'
p3192
a(lp3193
VDWELLER
p3194
aVHALLELUJAH
p3195
aVHELLENISTIC
p3196
aVHILLBILLY
p3197
aVHOLLANDAISE
p3198
aVNAILUP
p3199
aVSUNBOWL
p3200
aaa(lp3201
S'8/12/2014'
p3202
a(lp3203
VIMNOTADOCTOR
p3204
aVIPLAYONEONTV
p3205
aVKLUGMAN
p3206
aaa(lp3207
S'8/13/2014'
p3208
a(lp3209
VBANGUP
p3210
aVBEYONCE
p3211
aVLANGUAGEBARRIER
p3212
aVOCCURRED
p3213
aaa(lp3214
S'8/14/2014'
p3215
a(lp3216
VDELIBERATE
p3217
aVELEVATEDHIGHWAY
p3218
aVRAILROADTRESTLE
p3219
aVSHOPAHOLIC
p3220
aVUNDERPASS
p3221
aaa(lp3222
S'8/15/2014'
p3223
a(lp3224
VBLUETIT
p3225
aVCARIBBEANSEA
p3226
aVHAIRLIKE
p3227
aVJEANLUC
p3228
aVPACIFICOCEAN
p3229
aVPEPITA
p3230
aVSPICEUP
p3231
aVSUPERGLUE
p3232
aaa(lp3233
S'8/16/2014'
p3234
a(lp3235
VCHEERIEST
p3236
aVDEGREEMILLS
p3237
aVDIDISTUTTER
p3238
aVGYPSYJAZZ
p3239
aVINDISPOSE
p3240
aVMESSTENTS
p3241
aVNOTYOUTOO
p3242
aVPLASMS
p3243
aVSAMES
p3244
aVSTARWIPE
p3245
aVYOHEAVEHO
p3246
aaa(lp3247
S'8/17/2014'
p3248
a(lp3249
VAGGRESS
p3250
aVBARRINGRILL
p3251
aVBUYINLARGE
p3252
aVCIARA
p3253
aVCUTTINPASTE
p3254
aVEMOJI
p3255
aVHAGEL
p3256
aVHAULINOATS
p3257
aVHITTINMISS
p3258
aVJACKINCOKE
p3259
aVMANPURSE
p3260
aVNIPPINTUCK
p3261
aVRAPVIDEO
p3262
aVROCKINROLL
p3263
aVSHOWINTELL
p3264
aVTIMINAGAIN
p3265
aVVERTICALS
p3266
aVWILLINGRACE
p3267
aVWRITINWRONG
p3268
aVZUNE
p3269
aaa(lp3270
S'8/18/2014'
p3271
a(lp3272
VCOACHESUP
p3273
aVDECKCHAIR
p3274
aVDSTUDENTS
p3275
aVMOVIEREEL
p3276
aVPOLICEVAN
p3277
aVSTATESEAL
p3278
aVTOUCANSAM
p3279
aVUNDERBITE
p3280
aaa(lp3281
S'8/19/2014'
p3282
a(lp3283
VAKIVA
p3284
aVARTIFICIALBRAIN
p3285
aVBIALIK
p3286
aVCAPTURES
p3287
aVCLASSISM
p3288
aVGETUPTHECOURAGE
p3289
aVGROUPONS
p3290
aVKLUTZY
p3291
aVUPREAR
p3292
aaa(lp3293
S'8/20/2014'
p3294
a(lp3295
VGREWWEARY
p3296
aVLFRANKBAUM
p3297
aVRRATEDMOVIE
p3298
aVTROWEPRICE
p3299
aaa(lp3300
S'8/21/2014'
p3301
a(lp3302
VFOLLOWED
p3303
aVMAKEAFIST
p3304
aVPOISONPOWDER
p3305
aVPOLEPOSITION
p3306
aVPOWERPOLITICS
p3307
aVSOPORIFIC
p3308
aaa(lp3309
S'8/22/2014'
p3310
a(lp3311
VBBQSANDWICH
p3312
aVDEEPTHROAT
p3313
aVDRYFARM
p3314
aVEZERWEIZMAN
p3315
aVFLIGHT
p3316
aVFRANKGEHRY
p3317
aVITSMAGIC
p3318
aVQUAILAT
p3319
aVROYALISM
p3320
aVSETINTO
p3321
aVTRAINSIGNAL
p3322
aVYANKON
p3323
aaa(lp3324
S'8/23/2014'
p3325
a(lp3326
VBACCARAT
p3327
aVBAPTIZE
p3328
aVEACHCLUEIN
p3329
aVISMISSING
p3330
aVMEATFREE
p3331
aVTHELETTERN
p3332
aVTHEPUZZLE
p3333
aaa(lp3334
S'8/24/2014'
p3335
a(lp3336
VBLOTACTIONRIFLE
p3337
aVBRAOFCHOCOLATE
p3338
aVCALMCHOWDER
p3339
aVCLODCEREAL
p3340
aVCROONERSINQUEST
p3341
aVDIARYMAID
p3342
aVERAOFCORN
p3343
aVLECHERY
p3344
aVLEIDETECTOR
p3345
aVPOSTOP
p3346
aVROADEOS
p3347
aVSATINLESSSTEEL
p3348
aVSLIVERMINE
p3349
aVSMALLCAR
p3350
aVTEAMPLAY
p3351
aaa(lp3352
S'8/25/2014'
p3353
a(lp3354
VBLUNDERBUSS
p3355
aVBOBBLEHEADS
p3356
aVBUMBLEBEES
p3357
aVCAMERAMAN
p3358
aaa(lp3359
S'8/26/2014'
p3360
a(lp3361
VANNULLED
p3362
aVGODRY
p3363
aVHOPEDFOR
p3364
aVMILKPUNCH
p3365
aaa(lp3366
S'8/27/2014'
p3367
a(lp3368
VCHARLIETHETUNER
p3369
aVCONGERLINES
p3370
aVFOAMPEANUT
p3371
aVFRANKZAPPER
p3372
aVSALESQUOTER
p3373
aVTUBERPLAYER
p3374
aVWHATALAUGH
p3375
aaa(lp3376
S'8/28/2014'
p3377
a(lp3378
VACTRESSSELA
p3379
aVBEAVERSDAD
p3380
aVBRASALE
p3381
aVISNTIT
p3382
aVMODERNE
p3383
aVOFFSETS
p3384
aVOUTERARM
p3385
aVPATIENTAREA
p3386
aVPRISONWING
p3387
aaa(lp3388
S'8/29/2014'
p3389
a(lp3390
VANDTHENSOME
p3391
aVBEBOPPED
p3392
aVCROWDSOURCE
p3393
aVHONORSYSTEM
p3394
aVRACHAEL
p3395
aVRERI
p3396
aVRESTASSURED
p3397
aVSCHMITT
p3398
aaa(lp3399
S'8/30/2014'
p3400
a(lp3401
VAOLMAIL
p3402
aVAZOBLUE
p3403
aVFUJITSU
p3404
aVGOGGLES
p3405
aVGOGOBAR
p3406
aVIPADAPP
p3407
aVJUNKART
p3408
aVMARYKAY
p3409
aVOZZFEST
p3410
aVTALARIA
p3411
aVZZZQUIL
p3412
aaa(lp3413
S'8/31/2014'
p3414
a(lp3415
VBESTPICTUREWINNER
p3416
aVCHALLAHBOWEDHEAVE
p3417
aVDRUGLAWS
p3418
aVDWELLFIERCESUSSLAVE
p3419
aVHONDAWATTAFFRONT
p3420
aVHOWTOUGHHAVERIGA
p3421
aVINTERNEES
p3422
aVRENECLAIR
p3423
aVTHUGODDFODDER
p3424
aVVIVIFY
p3425
aVWARDENHAIRYPEEPHOLE
p3426
aVWUSSY
p3427
aaa(lp3428
S'9/1/2014'
p3429
a(lp3430
VDELIMEATS
p3431
aVLEGALTEAMS
p3432
aVLOSESTEAM
p3433
aVPERLEMESTA
p3434
aVSHIPMATES
p3435
aV2PHASEIN
p3436
aVPICKAT
p3437
aVQUALM
p3438
aVUCSB
p3439
aV3MUSTY
p3440
aVZEROSUM
p3441
aV4GASTANK
p3442
aVSUSIEQ
p3443
aVYUPPIE
p3444
aV5DISSECT
p3445
aVICECUBE
p3446
aVSEISMIC
p3447
aV6ATROPHY
p3448
aVJAPES
p3449
aVRUNIC
p3450
aV8NAPALM
p3451
aaa(lp3452
S'9/2/2014'
p3453
a(lp3454
VBEERNUT
p3455
aVBINDLE
p3456
aVBOARDMEETINGS
p3457
aVCOLLEGEEXPENSES
p3458
aVMUSTI
p3459
aVROOMTOIMPROVE
p3460
aVSTEWIE
p3461
aVTEXTBOOKEXAMPLE
p3462
aVUMNO
p3463
aV2HUSTON
p3464
aV3APPLET
p3465
aV4INGENUE
p3466
aVMRMET
p3467
aV5MELONS
p3468
aVNUMERAL
p3469
aVOVERDUE
p3470
aVPDS
p3471
aV6ALBEIT
p3472
aVTABLA
p3473
aV7EARFLAP
p3474
aV8MAXIM
p3475
aaa(lp3476
S'9/3/2014'
p3477
a(lp3478
VIDOSO
p3479
aVPAYDAYS
p3480
aVPRIVYCOUNCIL
p3481
aaa(lp3482
S'9/4/2014'
p3483
a(lp3484
VDEERSTALKER
p3485
aVFARREMOVED
p3486
aVKARI
p3487
aVMIXOLOGIST
p3488
aVYARMULKE
p3489
aaa(lp3490
S'9/5/2014'
p3491
a(lp3492
VADWARS
p3493
aVASSETALLOCATION
p3494
aVDECONSTRUCT
p3495
aVGREATGRANDNIECE
p3496
aVHILLBILLIES
p3497
aVLEAVESTODIE
p3498
aVMODERNDANCE
p3499
aVNICKELANDDIMING
p3500
aVOLDAGEPENSIONER
p3501
aVPATRONAGEHIRING
p3502
aVRACETOTHEBOTTOM
p3503
aVREEDUCATIONCAMP
p3504
aVWAITING
p3505
aaa(lp3506
S'9/6/2014'
p3507
a(lp3508
VCELERYSEED
p3509
aVCHICKFILA
p3510
aVCROAKED
p3511
aVFEDERER
p3512
aVKONY
p3513
aVPINKYSWEAR
p3514
aVRADIOEDIT
p3515
aaa(lp3516
S'9/7/2014'
p3517
a(lp3518
VBEFUDDLES
p3519
aVBOLLWEEVILS
p3520
aVCOMMONSENSE
p3521
aVCUSSES
p3522
aVREARENDED
p3523
aVWHICHEVER
p3524
aaa(lp3525
S'9/8/2014'
p3526
a(lp3527
VBOOKOFMORMON
p3528
aVSORORITY
p3529
aVTHEBIGFIVEOH
p3530
aVWHITERICE
p3531
aV3HOOLIGAN
p3532
aVVOODOODOLL
p3533
aV4DOORTODOOR
p3534
aV5SLAMMER
p3535
aVSWABS
p3536
aV6LOBED
p3537
aVPHONY
p3538
aVVICES
p3539
aV7VETERAN
p3540
aaa(lp3541
S'9/9/2014'
p3542
a(lp3543
VNINETEENSIXTY
p3544
aVPOWERSTRIP
p3545
aVWALLSOCKET
p3546
aaa(lp3547
S'9/10/2014'
p3548
a(lp3549
VGIVEMETHAT
p3550
aVHOOHAHS
p3551
aVHOWYOUBEEN
p3552
aVKARTS
p3553
aVOCEANBREEZE
p3554
aVREADON
p3555
aVUNABASHEDLY
p3556
aaa(lp3557
S'9/11/2014'
p3558
a(lp3559
VLLAMO
p3560
aaa(lp3561
S'9/12/2014'
p3562
a(lp3563
VDRIVETOWORK
p3564
aVGOFIRST
p3565
aVHOWONEARTH
p3566
aVIMOUTTAHERE
p3567
aVINDISTINCT
p3568
aVINTERSPERSE
p3569
aVITSCOOL
p3570
aVKEPTFIT
p3571
aVOVERSTRESS
p3572
aVRETAILPRICE
p3573
aVROMATOMATO
p3574
aVSTADIUMROCK
p3575
aVTAKESTHERAP
p3576
aaa(lp3577
S'9/13/2014'
p3578
a(lp3579
VCHEAPENS
p3580
aVCHEESEBALL
p3581
aVCOLUMNIST
p3582
aVCOMELY
p3583
aVDOWNHERE
p3584
aVLEMONGRASS
p3585
aVLETTERBOX
p3586
aVNURSING
p3587
aVPRONOUNCE
p3588
aaa(lp3589
S'9/14/2014'
p3590
a(lp3591
VBYRNETACK
p3592
aVCAINEPILLAR
p3593
aVFEYHEALED
p3594
aVFIRTHBOTHER
p3595
aVGEREBOGGLES
p3596
aVKEEPGOING
p3597
aVLEESCION
p3598
aVOHHAPPYDAY
p3599
aVPOEHLERSOUR
p3600
aVSHEENCLEATS
p3601
aVSPYFI
p3602
aVWESTMYTH
p3603
aaa(lp3604
S'9/15/2014'
p3605
a(lp3606
VBEANSPROUTS
p3607
aVBOYZ
p3608
aVFISHANDCHIPS
p3609
aVJELLY
p3610
aVROLLOFTHEDIE
p3611
aaa(lp3612
S'9/16/2014'
p3613
a(lp3614
VLONDONONTARIO
p3615
aVMONSOONSEASON
p3616
aVONANDONANDON
p3617
aVTRANSLUCENT
p3618
aVWRITINGDESK
p3619
aaa(lp3620
S'9/17/2014'
p3621
a(lp3622
VCOMEOFAGE
p3623
aVPOLLINATION
p3624
aaa(lp3625
S'9/18/2014'
p3626
a(lp3627
VAASINARE
p3628
aVCASINCUE
p3629
aVEASINEYE
p3630
aVKIMYE
p3631
aVQRCIU
p3632
aVSASINSEA
p3633
aVYASINYOU
p3634
aaa(lp3635
S'9/19/2014'
p3636
a(lp3637
VBUNDLE
p3638
aVHUMBLEBRAG
p3639
aVLAUTNER
p3640
aVLENADUNHAM
p3641
aVPEIGNOIR
p3642
aVSOCIALLIFE
p3643
aaa(lp3644
S'9/20/2014'
p3645
a(lp3646
VASPECTRATIO
p3647
aVCLAMATO
p3648
aVHOF
p3649
aVKCUP
p3650
aVLGELECTRONICS
p3651
aVOARERS
p3652
aVPROJECTRUNWAY
p3653
aVQUIRRELL
p3654
aVRAINGEAR
p3655
aVTWOOUT
p3656
aVUNWIELDY
p3657
aaa(lp3658
S'9/21/2014'
p3659
a(lp3660
VAPTESTS
p3661
aVBRAKEONTHROUGH
p3662
aVIDYLLS
p3663
aVIKISSEDAGRILLE
p3664
aVIKONS
p3665
aVLIVINLAVEHICLELOCA
p3666
aVMINISTERTO
p3667
aVMOVESLIKEJAGUAR
p3668
aVONTILT
p3669
aVSPOTLESS
p3670
aVTHEFLEA
p3671
aVWAGNERIANS
p3672
aVWONTGETFUELEDAGAIN
p3673
aaa(lp3674
S'9/22/2014'
p3675
a(lp3676
VAWEEBIT
p3677
aVCANESUGAR
p3678
aVCOMEGETME
p3679
aVRODSTEWART
p3680
aVSTAFFCUTS
p3681
aVSTICKUPMEN
p3682
aaa(lp3683
S'9/23/2014'
p3684
a(lp3685
VBOGEYING
p3686
aVCOLBY
p3687
aVFLOSSED
p3688
aVGOLDNUGGETS
p3689
aVSLIPSLOP
p3690
aVUNSTOW
p3691
aaa(lp3692
S'9/24/2014'
p3693
a(lp3694
VABEAUTIFULMINX
p3695
aVBETTEDAVIS
p3696
aVBRANDTS
p3697
aVEATXRAYLOVE
p3698
aVLEVITATE
p3699
aVMARXATTACKS
p3700
aVTHELOVELYBOXES
p3701
aVUNFEMININE
p3702
aVWETCELL
p3703
aaa(lp3704
S'9/25/2014'
p3705
a(lp3706
VFILIPINOS
p3707
aVRIBOSOMES
p3708
aVSEIZER
p3709
aVSPACESHIP
p3710
aVSPALKO
p3711
aaa(lp3712
S'9/26/2014'
p3713
a(lp3714
VAIRHORNS
p3715
aVBACKTALKS
p3716
aVBINGONIGHT
p3717
aVBUMMINGAROUND
p3718
aVCARPENTERANTS
p3719
aVDRAGGEDOUT
p3720
aVROCKINGHORSES
p3721
aVSLEEPERHIT
p3722
aVSPIRITING
p3723
aaa(lp3724
S'9/27/2014'
p3725
a(lp3726
VBLOKES
p3727
aVBREAKERONENINER
p3728
aVECIGARETTE
p3729
aVELABORATEON
p3730
aVGROANSAT
p3731
aVICALLEMASISEEEM
p3732
aVMEANINGLESS
p3733
aVSENESCENCE
p3734
aVTOPTENLIST
p3735
aaa(lp3736
S'9/28/2014'
p3737
a(lp3738
VANABOLIC
p3739
aVEVALARUE
p3740
aVGENY
p3741
aVHOLDYOURHEADHIGH
p3742
aVLESSTALKMOREROCK
p3743
aVNOGOODNIK
p3744
aVOPENSHOTS
p3745
aVSALTLAKECITYUTAH
p3746
aVSAMETIMENEXTYEAR
p3747
aVTEARDOWNTHISWALL
p3748
aVWILDCARD
p3749
aVWITHARMSWIDEOPEN
p3750
aaa(lp3751
S'9/29/2014'
p3752
a(lp3753
VHOMETOWNHERO
p3754
aVHUMBLEBEGINNINGS
p3755
aVIKNEWYOUWHEN
p3756
aVMAKESGOOD
p3757
aaa(lp3758
S'9/30/2014'
p3759
a(lp3760
VBOBBARKER
p3761
aVBREWEDUP
p3762
aVGASRING
p3763
aVIDLEWILD
p3764
aVOKSO
p3765
aVPGRATINGS
p3766
aVPOTUS
p3767
aVTERCE
p3768
aaa(lp3769
S'10/1/2014'
p3770
a(lp3771
VWALDOPEPPER
p3772
aaa(lp3773
S'10/2/2014'
p3774
a(lp3775
VBADSPORT
p3776
aVCOMCAST
p3777
aVFILMCANON
p3778
aVMCLOVIN
p3779
aVMRSUN
p3780
aVRELATIVITY
p3781
aVSUNDRY
p3782
aVSWIMCAP
p3783
aaa(lp3784
S'10/3/2014'
p3785
a(lp3786
VALPHAFEMALE
p3787
aVBEMUSED
p3788
aVBOJANGLES
p3789
aVDIMETAPP
p3790
aVGOATRODEO
p3791
aVILLTRADEYOU
p3792
aVISDUETO
p3793
aVKHALIF
p3794
aVNEAME
p3795
aVREGGAETON
p3796
aaa(lp3797
S'10/4/2014'
p3798
a(lp3799
VABOUTTURNS
p3800
aVDARKRED
p3801
aVDERNIERCRI
p3802
aVDINKIER
p3803
aVDURIANS
p3804
aVGETRIDOF
p3805
aVMATRIARCH
p3806
aVMYPRECIOUS
p3807
aVNOWAR
p3808
aVRELIGIONS
p3809
aVROID
p3810
aVVACUITY
p3811
aaa(lp3812
S'10/5/2014'
p3813
a(lp3814
VASEASYASABC
p3815
aVBIENNIALLY
p3816
aVCHAST
p3817
aVDETESTABLE
p3818
aVDOJUSTICE
p3819
aVETHELMERTZ
p3820
aVFULLTILT
p3821
aVIMPEACHING
p3822
aVIRRITATION
p3823
aVPRANCEDAROUND
p3824
aVPRESOAKED
p3825
aVREBOOTS
p3826
aVSOAPING
p3827
aVYOURENOTKIDDING
p3828
aaa(lp3829
S'10/6/2014'
p3830
a(lp3831
VCHEMISTRY
p3832
aVEXCITABLE
p3833
aVMOVINOUT
p3834
aaa(lp3835
S'10/7/2014'
p3836
a(lp3837
VBREAKTIME
p3838
aVDOWNTHEHATCH
p3839
aaa(lp3840
S'10/8/2014'
p3841
a(lp3842
VOHTHAT
p3843
aaa(lp3844
S'10/9/2014'
p3845
a(lp3846
VJACKET
p3847
aaa(lp3848
S'10/10/2014'
p3849
a(lp3850
VDARIUSI
p3851
aVFLOATING
p3852
aVOVERALLS
p3853
aVPAUCITY
p3854
aVREUSING
p3855
aaa(lp3856
S'10/11/2014'
p3857
a(lp3858
VATWHOLESALE
p3859
aVBABYSITTERS
p3860
aVBREAKINGBAD
p3861
aVFROGMARCH
p3862
aVKEVINDURANT
p3863
aVOPENTABLE
p3864
aVSEMISWEET
p3865
aVSMARTPHONES
p3866
aaa(lp3867
S'10/12/2014'
p3868
a(lp3869
VCOALCANARYMINE
p3870
aVHANDGOTOHELLBASKET
p3871
aVMILLIONNOTYEARS
p3872
aVPARODIST
p3873
aVRAPINI
p3874
aVROUNDSQUAREPEGHOLE
p3875
aVTEATEMPESTPOT
p3876
aVWHITEHAT
p3877
aaa(lp3878
S'10/13/2014'
p3879
a(lp3880
VINVESTS
p3881
aVSPACELY
p3882
aVSTIX
p3883
aaa(lp3884
S'10/14/2014'
p3885
a(lp3886
VBANDSTANDS
p3887
aVCOVERSTORIES
p3888
aVHANDLEBARS
p3889
aVHITTHEROOF
p3890
aVPLOTPOINTS
p3891
aVSUBTEXT
p3892
aVTRADESECRETS
p3893
aV2ADOPE
p3894
aVCLOSEUP
p3895
aV3OCHERS
p3896
aVSMUSH
p3897
aV5HEHE
p3898
aVTOUGH
p3899
aV7BENJI
p3900
aVBRENDA
p3901
aV8SERRA
p3902
aVSTJOE
p3903
aaa(lp3904
S'10/15/2014'
p3905
a(lp3906
VELDERWINE
p3907
aVHUCKLEFINN
p3908
aVRASPBERET
p3909
aVSTRAWBLONDE
p3910
aaa(lp3911
S'10/16/2014'
p3912
a(lp3913
VBUOYUP
p3914
aVCORNUCOPIA
p3915
aVLANDONDONOVAN
p3916
aVPAPALPALACE
p3917
aVPERCYBYSSHESHELLEY
p3918
aVUPHELD
p3919
aVWHOOPIEPIES
p3920
aaa(lp3921
S'10/17/2014'
p3922
a(lp3923
VDIETSODAS
p3924
aVELDESTSONS
p3925
aVFASHIONICON
p3926
aVMOBILEAPP
p3927
aVSEENITALL
p3928
aVSOLOSHOTS
p3929
aVSTRUCKDUMB
p3930
aVTHEKINGDOM
p3931
aVTHEMONITOR
p3932
aVTHINASAREED
p3933
aaa(lp3934
S'10/18/2014'
p3935
a(lp3936
VAUTOCORRECT
p3937
aVCROTCH
p3938
aVDICTATED
p3939
aVKICKSTARTER
p3940
aVLASERDISCS
p3941
aVPSYCHOPATH
p3942
aVRAFA
p3943
aaa(lp3944
S'10/19/2014'
p3945
a(lp3946
VALBANESE
p3947
aVALLEGER
p3948
aVCHAISEREBELLION
p3949
aVCLEARTHEWEIGH
p3950
aVDEVILRAISE
p3951
aVFLEWOUT
p3952
aVGUISEANDDOLLS
p3953
aVIDOLSOFTHEKING
p3954
aVNORIMEORREASON
p3955
aVRICKROLL
p3956
aVRIVETED
p3957
aVSARISTATE
p3958
aVSIZZLES
p3959
aVSUNDAEBEST
p3960
aVTRUSTEESIDEKICK
p3961
aVULTRAHIP
p3962
aaa(lp3963
S'10/20/2014'
p3964
a(lp3965
VDAYTRIPPER
p3966
aVHUARTE
p3967
aVPASSIONWEEK
p3968
aVTHEWITCHINGHOUR
p3969
aaa(lp3970
S'10/21/2014'
p3971
a(lp3972
VHUMVEE
p3973
aVMARATHONERSSTAT
p3974
aVMIGRATOR
p3975
aVPARTNEROFWARNER
p3976
aVREHM
p3977
aVWHATPRISONERSDO
p3978
aV2ALOUS
p3979
aVFRIJOLES
p3980
aVNAVYSEAL
p3981
aV3DINOSAUR
p3982
aVGUARDS
p3983
aVJETTY
p3984
aV4APATOW
p3985
aVGONERS
p3986
aV5ISHALL
p3987
aVSQUEAK
p3988
aV6HIGHC
p3989
aV7IPHONE
p3990
aVSAWYER
p3991
aV8XRATED
p3992
aV9UNWED
p3993
aaa(lp3994
S'10/22/2014'
p3995
a(lp3996
VGMO
p3997
aVGOPFFT
p3998
aVLEEANN
p3999
aVUNCURL
p4000
aVYUMYUM
p4001
aaa(lp4002
S'10/23/2014'
p4003
a(lp4004
VATTEMPTED
p4005
aVBASEMETAL
p4006
aVLIMITING
p4007
aVSASHIMIS
p4008
aaa(lp4009
S'10/24/2014'
p4010
a(lp4011
VGANJA
p4012
aVGINJOINTS
p4013
aVORGCHART
p4014
aVPAMPLONA
p4015
aVSPIDEY
p4016
aVSYFY
p4017
aVTROUPES
p4018
aVTURNLOOSE
p4019
aVUZO
p4020
aaa(lp4021
S'10/25/2014'
p4022
a(lp4023
VALPHANUMERICS
p4024
aVIONSTORMS
p4025
aVIRRITATES
p4026
aVMMXL
p4027
aVPIEJESU
p4028
aVPOKIEST
p4029
aVSENSUALLY
p4030
aaa(lp4031
S'10/26/2014'
p4032
a(lp4033
VACIDJAZZ
p4034
aVASSUAGED
p4035
aVBVITAMIN
p4036
aVCOERCIVELY
p4037
aVISMAN
p4038
aVKEDROVA
p4039
aVLAUNCHER
p4040
aVLOCCIT
p4041
aVOTILDE
p4042
aVSCHLUBS
p4043
aVSLACKEST
p4044
aVSTEAMCAR
p4045
aVTHEPENGUIN
p4046
aaa(lp4047
S'10/27/2014'
p4048
a(lp4049
VDICKVANDYKE
p4050
aVDVDRECORDER
p4051
aVMDLII
p4052
aVNERVECELL
p4053
aaa(lp4054
S'10/28/2014'
p4055
a(lp4056
VDAYSOFTHUNDER
p4057
aVDISCOUNTED
p4058
aVSEMITROPIC
p4059
aaa(lp4060
S'10/29/2014'
p4061
a(lp4062
VQUITSMOKING
p4063
aaa(lp4064
S'10/30/2014'
p4065
a(lp4066
VARIZONIAN
p4067
aVCHIPMUNK
p4068
aVCHIPPENDALESDANCERS
p4069
aVCHIPPER
p4070
aVCHOCOLATECHIPCOOKIE
p4071
aVQUICKER
p4072
aVSPYCAR
p4073
aVVERONIQUE
p4074
aaa(lp4075
S'10/31/2014'
p4076
a(lp4077
VBOOBTUBE
p4078
aVBURIEDALIVE
p4079
aVCOEXISTED
p4080
aVCOGNOSCENTE
p4081
aVHORRORSTORY
p4082
aVMOUSEOVER
p4083
aVRAWTALENT
p4084
aVTEACLOTH
p4085
aVWHALEBOAT
p4086
aaa(lp4087
S'11/1/2014'
p4088
a(lp4089
VBATTLEFIELD
p4090
aVGROSSPROFIT
p4091
aVNEUTROGENA
p4092
aVREPEATEDLY
p4093
aVYASSIR
p4094
aaa(lp4095
S'11/2/2014'
p4096
a(lp4097
VAIRPOP
p4098
aVALINER
p4099
aVCHRISTIANPAIL
p4100
aVDOLLEY
p4101
aVFITTED
p4102
aVGIRLSHY
p4103
aVHAUNCH
p4104
aVLTGOVS
p4105
aVORNATELY
p4106
aVPERCHPIER
p4107
aVPERTHCANAL
p4108
aVPLAQUEART
p4109
aVPLAYSOFGLORY
p4110
aVSHOPFOR
p4111
aVTHATSMYPOI
p4112
aVTHETHREEPAIRS
p4113
aaa(lp4114
S'11/3/2014'
p4115
a(lp4116
VCANCELLED
p4117
aVCOLBYCOLLEGE
p4118
aVCOLORCOPYING
p4119
aVCOMPASSCOURSE
p4120
aVYOICKS
p4121
aaa(lp4122
S'11/4/2014'
p4123
a(lp4124
VBIGSTINKS
p4125
aVBLOGGED
p4126
aVGROUPHUGS
p4127
aVREMBRANDTS
p4128
aVTIMESUCKS
p4129
aaa(lp4130
S'11/5/2014'
p4131
a(lp4132
VALLEVIATE
p4133
aVMMMMMMMMMMMM
p4134
aVMTCOOK
p4135
aVOBLADIOBLADA
p4136
aaa(lp4137
S'11/6/2014'
p4138
a(lp4139
VEMIGRATED
p4140
aVGUARANTOR
p4141
aVODDONE
p4142
aaa(lp4143
S'11/7/2014'
p4144
a(lp4145
VBIGBUCKS
p4146
aVBLINDALLEYS
p4147
aVBULLETINBOARD
p4148
aVDESTINATION
p4149
aVEMBARGOES
p4150
aVFOURDOOR
p4151
aVLOOSELIMBED
p4152
aVMONEYCLIP
p4153
aVPENALTYSHOT
p4154
aVSTAKEOUTS
p4155
aVWEBFOOT
p4156
aaa(lp4157
S'11/8/2014'
p4158
a(lp4159
VBATSIGNAL
p4160
aVBIOWEAPON
p4161
aVBLOOMBERG
p4162
aVCEREALBOX
p4163
aVEARTHRISE
p4164
aVGREENTAPE
p4165
aVLASSOER
p4166
aVPOOLROOMS
p4167
aaa(lp4168
S'11/9/2014'
p4169
a(lp4170
VBLACKHOLES
p4171
aVBLACKLISTING
p4172
aVBLUEBERRY
p4173
aVELEVENTY
p4174
aVFORMLETTERS
p4175
aVGREENGABLES
p4176
aVGRIFTS
p4177
aVKNINE
p4178
aVMILLIHELEN
p4179
aVSITBACK
p4180
aVTRAILMIXES
p4181
aVYELLOWBELLIES
p4182
aVYELLOWBRICK
p4183
aVYELLOWSTONE
p4184
aaa(lp4185
S'11/10/2014'
p4186
a(lp4187
VFUHGEDDABOUDIT
p4188
aVQUAKED
p4189
aVYOUREKIDDINGME
p4190
aV2DANCES
p4191
aVTHATSRIDICULOUS
p4192
aVUNKIND
p4193
aV3UNIFY
p4194
aV5DONTMAKEMELAUGH
p4195
aVDRAINS
p4196
aVGRIPS
p4197
aVHIPTO
p4198
aV6BDAY
p4199
aV9STATED
p4200
aVTWIXT
p4201
aVUNITES
p4202
aaa(lp4203
S'11/11/2014'
p4204
a(lp4205
VACUVUE
p4206
aVAPPLETV
p4207
aVCHUPACHUPS
p4208
aVCUPASOUP
p4209
aVDOUBLEUP
p4210
aVMACULA
p4211
aVSUPERDUPER
p4212
aVSUPPORTGROUPS
p4213
aaa(lp4214
S'11/12/2014'
p4215
a(lp4216
VGRANDMERE
p4217
aVORDAINING
p4218
aaa(lp4219
S'11/13/2014'
p4220
a(lp4221
VEXACTING
p4222
aVKISSCAM
p4223
aVSMACKER
p4224
aaa(lp4225
S'11/14/2014'
p4226
a(lp4227
VALLBY
p4228
aVCADILLACSEVILLE
p4229
aVCHESSMOVE
p4230
aVENDPOST
p4231
aVETONIC
p4232
aVFOOTBALLMASCOTS
p4233
aVJAMIELEE
p4234
aVLEOVIII
p4235
aVMUSICALNOTE
p4236
aVPOLOTEAM
p4237
aVRAISEDLETTERING
p4238
aVROAMOFF
p4239
aVTACTICS
p4240
aVTWITTERS
p4241
aaa(lp4242
S'11/15/2014'
p4243
a(lp4244
VAFFLUENZA
p4245
aVAPPLETREE
p4246
aVCLEANSED
p4247
aVCLOCKED
p4248
aVLASTMOVES
p4249
aVMUTTON
p4250
aVPIZZAPIES
p4251
aVSOTHATSIT
p4252
aVTAXCHEAT
p4253
aaa(lp4254
S'11/16/2014'
p4255
a(lp4256
VATTENDEES
p4257
aVBRAMSTOKER
p4258
aVCHIMEINON
p4259
aVEMPHASIZE
p4260
aVESCAPING
p4261
aVEXHIPPIES
p4262
aVGLORIAALLRED
p4263
aVGRADPHOTO
p4264
aVHAPPYMEAL
p4265
aVJOHNNYROTTEN
p4266
aVSELECTMAN
p4267
aVSHOELAST
p4268
aVSPINAYARN
p4269
aVWILLIAMHURT
p4270
aaa(lp4271
S'11/17/2014'
p4272
a(lp4273
VASHTONKUTCHER
p4274
aVCHICKMAGNET
p4275
aVKOFIANNAN
p4276
aVMARIOANDRETTI
p4277
aVMONSTROSITY
p4278
aaa(lp4279
S'11/18/2014'
p4280
a(lp4281
VADSALE
p4282
aVFULLSTEAM
p4283
aVMUSCLEMAN
p4284
aVPOWERCOUPLE
p4285
aaa(lp4286
S'11/19/2014'
p4287
a(lp4288
VNOMINATION
p4289
aVNONPRESCRIPTION
p4290
aVNORAEPHRON
p4291
aVTHERESNOTWO
p4292
aVWAYSABOUTIT
p4293
aV2CALIPH
p4294
aVEMIGRANT
p4295
aV3FATTER
p4296
aVKOMODO
p4297
aV5WAXER
p4298
aV8OKLAHOMA
p4299
aV9OCH
p4300
aaa(lp4301
S'11/20/2014'
p4302
a(lp4303
VBUTTOUT
p4304
aVCAPISTRANO
p4305
aVDEICIDE
p4306
aVDELAVEGA
p4307
aVDONDIEGO
p4308
aVNEWSAGENT
p4309
aVSNORKELERS
p4310
aaa(lp4311
S'11/21/2014'
p4312
a(lp4313
VBUTTDIAL
p4314
aVJONESING
p4315
aVLOCAVORE
p4316
aVNOCLASS
p4317
aaa(lp4318
S'11/22/2014'
p4319
a(lp4320
VBARSEAT
p4321
aVBREZHNEV
p4322
aVDROIDRAZR
p4323
aVEXCUSEYOU
p4324
aVREDDIWIP
p4325
aVREPLACED
p4326
aVWARMONGER
p4327
aVWIIMOTES
p4328
aVZEPPOMARX
p4329
aaa(lp4330
S'11/23/2014'
p4331
a(lp4332
VASHLEE
p4333
aVASUNCION
p4334
aVCOLLIEMELANCHOLY
p4335
aVGRANITEPOMEGRANATE
p4336
aVHUMORED
p4337
aVLUNARBALLOONER
p4338
aVMENTIONSDIMENSIONS
p4339
aVPEWTERCOMPUTER
p4340
aVRANDOMMEMORANDUM
p4341
aVROTCPAPARAZZI
p4342
aaa(lp4343
S'11/24/2014'
p4344
a(lp4345
VFLOORMIRRORS
p4346
aVONTHEDOWNLOW
p4347
aVPROMPTLY
p4348
aaa(lp4349
S'11/25/2014'
p4350
a(lp4351
VCENTERFIELD
p4352
aVFIFTYSIXGAMES
p4353
aVFINALIZE
p4354
aVHITTING
p4355
aVICANTNOW
p4356
aVONHIATUS
p4357
aaa(lp4358
S'11/26/2014'
p4359
a(lp4360
VFIRINGLINE
p4361
aVLAVALIERES
p4362
aVMASHUNIT
p4363
aVSTEPINSIDE
p4364
aaa(lp4365
S'11/27/2014'
p4366
a(lp4367
VGRAZIEMILLE
p4368
aVJUDGEJUDY
p4369
aVMERCIBEAUCOUP
p4370
aVMUCHASGRACIAS
p4371
aVPOMELOS
p4372
aVSOPPED
p4373
aaa(lp4374
S'11/28/2014'
p4375
a(lp4376
VJERUSALEMCROSS
p4377
aVNEWSALERT
p4378
aVROSALEEPARKS
p4379
aVSPRINGSALEAK
p4380
aaa(lp4381
S'11/29/2014'
p4382
a(lp4383
VADMITSIT
p4384
aVDEALWITH
p4385
aVDEICERS
p4386
aVDORN
p4387
aVEVEBEST
p4388
aVICANTSLEEPAWINK
p4389
aVIMSAVED
p4390
aVOBAMANIA
p4391
aVREGALING
p4392
aVSTORING
p4393
aVTHREELETTERWORD
p4394
aVWEEKENDWARRIORS
p4395
aaa(lp4396
S'11/30/2014'
p4397
a(lp4398
VBARDED
p4399
aVBROMINDED
p4400
aVCHANGEOFDRESS
p4401
aVELUCIDATES
p4402
aVFIVEOCLOCKSHOW
p4403
aVFOLLOWTHELEER
p4404
aVIRISHBALL
p4405
aVLEGALVICE
p4406
aVLIESFIRST
p4407
aVONTHESHYSIDE
p4408
aVOOCYTES
p4409
aVOPTIONAGENCY
p4410
aVOZONES
p4411
aVREDSHOE
p4412
aVROYALPAINS
p4413
aVTONYMARTIN
p4414
aaa(lp4415
S'12/1/2014'
p4416
a(lp4417
VCAMPOUT
p4418
aVFLOATMYBOAT
p4419
aVREDOUBT
p4420
aVROCKMYWORLD
p4421
aVSUITMYFANCY
p4422
aaa(lp4423
S'12/2/2014'
p4424
a(lp4425
VDEFRAG
p4426
aVFEMBOT
p4427
aVFRACTALS
p4428
aaa(lp4429
S'12/3/2014'
p4430
a(lp4431
VASKSOVER
p4432
aVDROOPED
p4433
aaa(lp4434
S'12/4/2014'
p4435
a(lp4436
VCARNIVAL
p4437
aVDANGERS
p4438
aVWORRIED
p4439
aaa(lp4440
S'12/5/2014'
p4441
a(lp4442
VACIDIFIED
p4443
aVBREATHED
p4444
aVDEMONESS
p4445
aVGODIHOPENOT
p4446
aVINVESTIN
p4447
aVITUNESSTORE
p4448
aVRELEASEDATE
p4449
aVSTEVECARELL
p4450
aVSUNTANOIL
p4451
aVXESIN
p4452
aaa(lp4453
S'12/6/2014'
p4454
a(lp4455
VEGGWASH
p4456
aVGROOMSMEN
p4457
aVLOOKEDAT
p4458
aVSWANDIVES
p4459
aVTHEXFILES
p4460
aVUNFAZED
p4461
aVZOOLANDER
p4462
aaa(lp4463
S'12/7/2014'
p4464
a(lp4465
VAIRTUBE
p4466
aVBRACEYOURSELF
p4467
aVDEEPWEB
p4468
aVOPERON
p4469
aVPILLAROFSTRENGTH
p4470
aVPOBOXNO
p4471
aVROBOTSUMO
p4472
aVSHOULDERTHELOAD
p4473
aVSUPPORTINGACTOR
p4474
aVSYNCED
p4475
aVUPPERBACKPAIN
p4476
aVWEIGHTOFTHEWORLD
p4477
aaa(lp4478
S'12/8/2014'
p4479
a(lp4480
VSCIFICONVENTION
p4481
aVSOFARAWAY
p4482
aVTIMEFLIES
p4483
aaa(lp4484
S'12/9/2014'
p4485
a(lp4486
VACCRUED
p4487
aVAIRCON
p4488
aVCOLLEGEMEN
p4489
aVDEVALUED
p4490
aVDLEAGUE
p4491
aVEGGCELL
p4492
aVINTHEEVENT
p4493
aV2ATHEEL
p4494
aVBLANCHE
p4495
aVDEUCED
p4496
aVDOODLER
p4497
aVGUMBO
p4498
aV3OLDSOD
p4499
aV5STREAMER
p4500
aV6CCED
p4501
aVSHOVES
p4502
aV7BLOKE
p4503
aV8EERS
p4504
aVHERNIA
p4505
aV9OBLIGE
p4506
aVTORSOS
p4507
aaa(lp4508
S'12/10/2014'
p4509
a(lp4510
VCESIUMFORESTER
p4511
aVJAWLINE
p4512
aVLIQUEFY
p4513
aVMERCURYWELLS
p4514
aVPALLADIUMJAMES
p4515
aVROUNDEYED
p4516
aVTHORIUMWHITE
p4517
aaa(lp4518
S'12/11/2014'
p4519
a(lp4520
VBOXTOPS
p4521
aVESTERC
p4522
aVINTHECLUTCH
p4523
aVONESFINGERS
p4524
aVRAPPORT
p4525
aVTHECLUTTER
p4526
aVTHEMOTIONS
p4527
aaa(lp4528
S'12/12/2014'
p4529
a(lp4530
VCOOLAIR
p4531
aVELISHAOTIS
p4532
aVFRANKEN
p4533
aVHIJINKS
p4534
aVJICAMA
p4535
aVKEEPITREAL
p4536
aVMORSI
p4537
aVOKTOBERFEST
p4538
aaa(lp4539
S'12/13/2014'
p4540
a(lp4541
VANTSONALOG
p4542
aVBRISBANE
p4543
aVBUTTOCKS
p4544
aVHITMEUP
p4545
aVLIQUORUP
p4546
aVSETLIST
p4547
aVSTREETMEAT
p4548
aaa(lp4549
S'12/14/2014'
p4550
a(lp4551
VBEEGEELINE
p4552
aVBESTIE
p4553
aVCARRENTAL
p4554
aVDIALARIDE
p4555
aVDOGLIKE
p4556
aVGENIEJERKREACTION
p4557
aVGPSILOVEYOU
p4558
aVINSTINCTIVE
p4559
aVKANJIARTIST
p4560
aVKITTYLITURGY
p4561
aVMAILORDER
p4562
aVNETIZENS
p4563
aVOHDARJEELING
p4564
aVPROEMS
p4565
aVPUNCHER
p4566
aVTETRAGRAM
p4567
aVWEIRDALGAE
p4568
aVWHITEGLOVES
p4569
aVZOLTAN
p4570
aaa(lp4571
S'12/15/2014'
p4572
a(lp4573
VPORTALS
p4574
aVRACEAHEAD
p4575
aVSKITRIP
p4576
aVSUMMERCAMP
p4577
aaa(lp4578
S'12/16/2014'
p4579
a(lp4580
VDOOK
p4581
aVHARDTASK
p4582
aVMAURICESENDAK
p4583
aVTHEBEEGEES
p4584
aaa(lp4585
S'12/17/2014'
p4586
a(lp4587
VASTHICKASABRICK
p4588
aVFIVEWS
p4589
aVITLLTAKEFOREVER
p4590
aVNOTUNATTRACTIVE
p4591
aVWELLKNIT
p4592
aaa(lp4593
S'12/18/2014'
p4594
a(lp4595
VKNUCKLEDRAGGER
p4596
aVLIVEANDBREATHE
p4597
aVREDUCEDFAT
p4598
aVRIPTOPIECES
p4599
aaa(lp4600
S'12/19/2014'
p4601
a(lp4602
VDRACOMALFOY
p4603
aVFIGURESKATE
p4604
aVLEADVOCALS
p4605
aVOJTRIAL
p4606
aVOPENMRIS
p4607
aVPOLOPONIES
p4608
aVRINSEDOUT
p4609
aVSTANDSALONE
p4610
aVWALLOWS
p4611
aaa(lp4612
S'12/20/2014'
p4613
a(lp4614
VAFROBEAT
p4615
aVIPADMINI
p4616
aVMANSLAYER
p4617
aVMASLIN
p4618
aVPARTYTRAY
p4619
aVPLAYMATES
p4620
aVPOTFARMS
p4621
aVREALGOOD
p4622
aaa(lp4623
S'12/21/2014'
p4624
a(lp4625
VABOUTTO
p4626
aVBLACKEYEDHOPIS
p4627
aVBUICKS
p4628
aVCROSSHOBO
p4629
aVDESPICABLEHOMIE
p4630
aVEBOLAVIRUS
p4631
aVENDASHES
p4632
aVGOESGREEN
p4633
aVHOHUMDINGER
p4634
aVHOKEYWORD
p4635
aVHOKUMTOPAPA
p4636
aVHOLLIES
p4637
aVHONEYLOCUST
p4638
aVINFOTECH
p4639
aVKIDGLOVES
p4640
aVNANCYPELOSI
p4641
aVNOMONEYHOEDOWN
p4642
aVOOHOOH
p4643
aVPOTSHOP
p4644
aVTIMCOOK
p4645
aVWINELABEL
p4646
aaa(lp4647
S'12/22/2014'
p4648
a(lp4649
VBRAKEPEDAL
p4650
aVIMPEDIMENT
p4651
aVSHARPEDGE
p4652
aVSPEDAWAY
p4653
aV3PARMESAN
p4654
aVPEDXING
p4655
aV4DUEDATE
p4656
aVELECTRIC
p4657
aVJUDI
p4658
aVMEDIAN
p4659
aVPIPEDREAM
p4660
aVSERPICO
p4661
aV7INPEN
p4662
aV9HOPED
p4663
aVTARDY
p4664
aaa(lp4665
S'12/23/2014'
p4666
a(lp4667
VCOFFEES
p4668
aVPERFUME
p4669
aVSETAHEAD
p4670
aVSLAPAT
p4671
aaa(lp4672
S'12/24/2014'
p4673
a(lp4674
VCRIMEARIVER
p4675
aVCRYMEARIVER
p4676
aVGOBITWEEN
p4677
aVPARISALE
p4678
aaa(lp4679
S'12/25/2014'
p4680
a(lp4681
VARCHWAY
p4682
aVBOOTUP
p4683
aVDEVILRAY
p4684
aVGUNTOTING
p4685
aVOUTNUMBER
p4686
aVOVERRUN
p4687
aaa(lp4688
S'12/26/2014'
p4689
a(lp4690
VCHAPPELLE
p4691
aVGRAMOPHONES
p4692
aVHOTMAIL
p4693
aVLONGIES
p4694
aVSAVINGSANDLOAN
p4695
aVSEATOFTHEPANTS
p4696
aVSOFTSCIENCE
p4697
aaa(lp4698
S'12/27/2014'
p4699
a(lp4700
VADULTSWIM
p4701
aVBRICKOVEN
p4702
aVDAYSINN
p4703
aVGRANDTHEFTAUTO
p4704
aVKLOSS
p4705
aVLARSSON
p4706
aVMALTHUS
p4707
aVMARIANO
p4708
aVMORIA
p4709
aVMTVMOVIEAWARDS
p4710
aVPITCHES
p4711
aVSKYMALL
p4712
aVTRAINFARE
p4713
aVVEHEMENCY
p4714
aaa(lp4715
S'12/28/2014'
p4716
a(lp4717
VABANDONEDSHIP
p4718
aVCARELESS
p4719
aVDELETEDSCENE
p4720
aVDROPPEDCALL
p4721
aVFORFEITEDGAME
p4722
aVGUESSNOT
p4723
aVHELPMENUS
p4724
aVMEANINGS
p4725
aVMISSINGPERSON
p4726
aVPLANERIDE
p4727
aVSTRIPPEDBARE
p4728
aVTIPROAST
p4729
aVUNUSEDMINUTES
p4730
aaa(lp4731
S'12/29/2014'
p4732
a(lp4733
VBOBMARLEY
p4734
aVLOWIMPACT
p4735
aVSPELLITOUT
p4736
aVYOULOSTME
p4737
aaa(lp4738
S'12/30/2014'
p4739
a(lp4740
VDIETPLAN
p4741
aVHMONG
p4742
aVLABROOMS
p4743
aVLOOPDELOOPDELOOP
p4744
aVOCELO
p4745
aVPOMPOMS
p4746
aVPOOLPUMP
p4747
aaa.